(ipopulation
POPULATION
p0
(dp1
S'p'
p2
(dp3
I0
(iindividual
INDIVIDUAL
p4
(dp5
S'fitness'
p6
cnumpy.core.multiarray
scalar
p7
(cnumpy
dtype
p8
(S'f8'
p9
I0
I1
tp10
Rp11
(I3
S'<'
p12
NNNI-1
I-1
I0
tp13
bS'\x00\x008\xd0\xbd\xac"@'
p14
tp15
Rp16
sS'robot'
p17
(irocket
ROCKET
p18
(dp19
S'main_body'
p20
I0
sS'posSensor'
p21
I2
sS'lightSensor'
p22
I0
sS'vestSensor'
p23
I1
sS'side_cyls'
p24
(lp25
I1
aI2
aI3
aI4
asbsS'genome'
p26
cnumpy.core.multiarray
_reconstruct
p27
(cnumpy
ndarray
p28
(I0
tp29
S'b'
p30
tp31
Rp32
(I1
(I5
I8
tp33
g8
(S'f8'
p34
I0
I1
tp35
Rp36
(I3
S'<'
p37
NNNI-1
I-1
I0
tp38
bI00
S'\xec\x87\x19\x9aS\xfa\xef\xbf\xaej\x95\xa0\xe4\xb3\xe8?\xaa\xb0\x96y\x98\xdd\xe1?\xf47\x0e\x18.\x11\xab\xbf@\x05tY\xd4\x9d\xa2?\x00\xb9\xe0^\xb1\x8e\xcf?\x82&\xc16\xb2\'\xe0\xbf\xde|@\x03\x1a\xcd\xe2?\xcf\\\xa0N\x1ev\xd0?p\x84\xd9Z\xf3\xe0\xc9\xbf\x00\x00\x00\x00\x00\x00\xf0\xbf\x9b\x8fQ.\x93\xdb\xe5\xbf\xc0hEvgS\x92\xbf\xe8\x86\xf2\x94\xc2\xd4\xc2?\x00\x00\x00\x00\x00\x00\xf0\xbf6\xc6\xe3g&\xa3\xeb?\x00\x00\x00\x00\x00\x00\xf0?Jgh?\xcd\xc7\xe4\xbfp\x11v\x18\xba\xe3\xca?\x04\xd4\xed\xab\xeab\xe9\xbf\x00\x00\x00\x00\x00\x00\xf0\xbfn\x90Z\xa0\x04<\xe1\xbf\x90\xa4\x81o\x84w\xbb\xbf8\x8d\xfbl\x0b+\xe9?\xf0I\x86\xc2\xb3\x08\xd1?\xd0\xe8\xe3\xea\xfdR\xea\xbf\xf4\x1b\x8fPO\xa9\xe2?\x00\x00\x00\x00\x00\x00\xf0?\x00\x00\x00\x00\x00\x00\xf0?"\\\xde\xf0\x8cd\xdd\xbf\xb4\x10\xd8\xd7\x95\x83\xcd?\x9c\xa5\xee\xbb\x1a\xc3\xeb\xbf 1s\xd5Y\x1d\xc0\xbf\x0e\xf4d\x07 ?\xed?\xa0\xc2\x1e\x01\x04m\xd7?\x80D\x01\xe7\x12\xe2\xca\xbf\x00\x00\x00\x00\x00\x00\xf0\xbf\x00\x00\x00\x00\x00\x00\xf0\xbf`\xb0\xf8\xd4\x9e\xd0\xce?,\xf73XJi\xee?'
p39
tp40
bsS'ID'
p41
I0
sbsI1
(iindividual
INDIVIDUAL
p42
(dp43
g6
g7
(g11
S'\x00\x008\xd0\xbd\xac"@'
p44
tp45
Rp46
sg17
(irocket
ROCKET
p47
(dp48
g20
I0
sg21
I2
sg22
I0
sg23
I1
sg24
(lp49
I1
aI2
aI3
aI4
asbsg26
g27
(g28
(I0
tp50
g30
tp51
Rp52
(I1
(I5
I8
tp53
g36
I00
S'\xec\x87\x19\x9aS\xfa\xef\xbf\xaej\x95\xa0\xe4\xb3\xe8?\xaa\xb0\x96y\x98\xdd\xe1?\xf47\x0e\x18.\x11\xab\xbf@\x05tY\xd4\x9d\xa2?\x00\xb9\xe0^\xb1\x8e\xcf?\x82&\xc16\xb2\'\xe0\xbf\xde|@\x03\x1a\xcd\xe2?\xcf\\\xa0N\x1ev\xd0?p\x84\xd9Z\xf3\xe0\xc9\xbf\x00\x00\x00\x00\x00\x00\xf0\xbf\x9b\x8fQ.\x93\xdb\xe5\xbf\xc0hEvgS\x92\xbf\xe8\x86\xf2\x94\xc2\xd4\xc2?\x00\x00\x00\x00\x00\x00\xf0\xbf6\xc6\xe3g&\xa3\xeb?\x00\x00\x00\x00\x00\x00\xf0?Jgh?\xcd\xc7\xe4\xbfp\x11v\x18\xba\xe3\xca?\x04\xd4\xed\xab\xeab\xe9\xbf\x00\x00\x00\x00\x00\x00\xf0\xbfn\x90Z\xa0\x04<\xe1\xbf\x90\xa4\x81o\x84w\xbb\xbf8\x8d\xfbl\x0b+\xe9?\xf0I\x86\xc2\xb3\x08\xd1?\xd0\xe8\xe3\xea\xfdR\xea\xbf\xf4\x1b\x8fPO\xa9\xe2?\x00\x00\x00\x00\x00\x00\xf0?\x00\x00\x00\x00\x00\x00\xf0?"\\\xde\xf0\x8cd\xdd\xbf\xb4\x10\xd8\xd7\x95\x83\xcd?\x9c\xa5\xee\xbb\x1a\xc3\xeb\xbf 1s\xd5Y\x1d\xc0\xbf\x0e\xf4d\x07 ?\xed?\xa0\xc2\x1e\x01\x04m\xd7?\x80D\x01\xe7\x12\xe2\xca\xbf\x00\x00\x00\x00\x00\x00\xf0\xbf\x00\x00\x00\x00\x00\x00\xf0\xbf`\xb0\xf8\xd4\x9e\xd0\xce?,\xf73XJi\xee?'
p54
tp55
bsg41
I0
sbsI2
(iindividual
INDIVIDUAL
p56
(dp57
g6
g7
(g11
S'\x00\x008\xd0\xbd\xac"@'
p58
tp59
Rp60
sg17
(irocket
ROCKET
p61
(dp62
g20
I0
sg21
I2
sg22
I0
sg23
I1
sg24
(lp63
I1
aI2
aI3
aI4
asbsg26
g27
(g28
(I0
tp64
g30
tp65
Rp66
(I1
(I5
I8
tp67
g36
I00
S'\xec\x87\x19\x9aS\xfa\xef\xbf\xaej\x95\xa0\xe4\xb3\xe8?\xaa\xb0\x96y\x98\xdd\xe1?\xf47\x0e\x18.\x11\xab\xbf@\x05tY\xd4\x9d\xa2?\x00\xb9\xe0^\xb1\x8e\xcf?\x82&\xc16\xb2\'\xe0\xbf\xde|@\x03\x1a\xcd\xe2?\xcf\\\xa0N\x1ev\xd0?p\x84\xd9Z\xf3\xe0\xc9\xbf\x00\x00\x00\x00\x00\x00\xf0\xbf\x9b\x8fQ.\x93\xdb\xe5\xbf\xc0hEvgS\x92\xbf\xe8\x86\xf2\x94\xc2\xd4\xc2?\x00\x00\x00\x00\x00\x00\xf0\xbf6\xc6\xe3g&\xa3\xeb?\x00\x00\x00\x00\x00\x00\xf0?Jgh?\xcd\xc7\xe4\xbfp\x11v\x18\xba\xe3\xca?\x04\xd4\xed\xab\xeab\xe9\xbf\x00\x00\x00\x00\x00\x00\xf0\xbfn\x90Z\xa0\x04<\xe1\xbf\x90\xa4\x81o\x84w\xbb\xbf8\x8d\xfbl\x0b+\xe9?\xf0I\x86\xc2\xb3\x08\xd1?\xd0\xe8\xe3\xea\xfdR\xea\xbf\xf4\x1b\x8fPO\xa9\xe2?\x00\x00\x00\x00\x00\x00\xf0?\x00\x00\x00\x00\x00\x00\xf0?"\\\xde\xf0\x8cd\xdd\xbf\xb4\x10\xd8\xd7\x95\x83\xcd?\x9c\xa5\xee\xbb\x1a\xc3\xeb\xbf 1s\xd5Y\x1d\xc0\xbf\x0e\xf4d\x07 ?\xed?\xa0\xc2\x1e\x01\x04m\xd7?\x80D\x01\xe7\x12\xe2\xca\xbf\x00\x00\x00\x00\x00\x00\xf0\xbf\x00\x00\x00\x00\x00\x00\xf0\xbf`\xb0\xf8\xd4\x9e\xd0\xce?,\xf73XJi\xee?'
p68
tp69
bsg41
I0
sbsI3
(iindividual
INDIVIDUAL
p70
(dp71
g6
g7
(g11
S'\x00\x008\xd0\xbd\xac"@'
p72
tp73
Rp74
sg17
(irocket
ROCKET
p75
(dp76
g20
I0
sg21
I2
sg22
I0
sg23
I1
sg24
(lp77
I1
aI2
aI3
aI4
asbsg26
g27
(g28
(I0
tp78
g30
tp79
Rp80
(I1
(I5
I8
tp81
g36
I00
S'\xec\x87\x19\x9aS\xfa\xef\xbf\xaej\x95\xa0\xe4\xb3\xe8?\xaa\xb0\x96y\x98\xdd\xe1?\xf47\x0e\x18.\x11\xab\xbf@\x05tY\xd4\x9d\xa2?\x00\xb9\xe0^\xb1\x8e\xcf?\x82&\xc16\xb2\'\xe0\xbf\xde|@\x03\x1a\xcd\xe2?\xcf\\\xa0N\x1ev\xd0?p\x84\xd9Z\xf3\xe0\xc9\xbf\x00\x00\x00\x00\x00\x00\xf0\xbf\x9b\x8fQ.\x93\xdb\xe5\xbf\xc0hEvgS\x92\xbf\xe8\x86\xf2\x94\xc2\xd4\xc2?\x00\x00\x00\x00\x00\x00\xf0\xbf6\xc6\xe3g&\xa3\xeb?\x00\x00\x00\x00\x00\x00\xf0?Jgh?\xcd\xc7\xe4\xbfp\x11v\x18\xba\xe3\xca?\x04\xd4\xed\xab\xeab\xe9\xbf\x00\x00\x00\x00\x00\x00\xf0\xbfn\x90Z\xa0\x04<\xe1\xbf\x90\xa4\x81o\x84w\xbb\xbf8\x8d\xfbl\x0b+\xe9?\xf0I\x86\xc2\xb3\x08\xd1?\xd0\xe8\xe3\xea\xfdR\xea\xbf\xf4\x1b\x8fPO\xa9\xe2?\x00\x00\x00\x00\x00\x00\xf0?\x00\x00\x00\x00\x00\x00\xf0?"\\\xde\xf0\x8cd\xdd\xbf\xb4\x10\xd8\xd7\x95\x83\xcd?\x9c\xa5\xee\xbb\x1a\xc3\xeb\xbf0(DC\xd3\xa6\xdf?\x0e\xf4d\x07 ?\xed?\xa0\xc2\x1e\x01\x04m\xd7?\x80D\x01\xe7\x12\xe2\xca\xbf\x00\x00\x00\x00\x00\x00\xf0\xbf\x00\x00\x00\x00\x00\x00\xf0\xbf`\xb0\xf8\xd4\x9e\xd0\xce?,\xf73XJi\xee?'
p82
tp83
bsg41
I0
sbsI4
(iindividual
INDIVIDUAL
p84
(dp85
g6
g7
(g11
S'\x00\x008\xd0\xbd\xac"@'
p86
tp87
Rp88
sg17
(irocket
ROCKET
p89
(dp90
g20
I0
sg21
I2
sg22
I0
sg23
I1
sg24
(lp91
I1
aI2
aI3
aI4
asbsg26
g27
(g28
(I0
tp92
g30
tp93
Rp94
(I1
(I5
I8
tp95
g36
I00
S'\xec\x87\x19\x9aS\xfa\xef\xbf\xaej\x95\xa0\xe4\xb3\xe8?\xaa\xb0\x96y\x98\xdd\xe1?\xf47\x0e\x18.\x11\xab\xbf@\x05tY\xd4\x9d\xa2?\x00\xb9\xe0^\xb1\x8e\xcf?\x82&\xc16\xb2\'\xe0\xbf\xde|@\x03\x1a\xcd\xe2?\xcf\\\xa0N\x1ev\xd0?p\x84\xd9Z\xf3\xe0\xc9\xbf\x00\x00\x00\x00\x00\x00\xf0\xbf\x9b\x8fQ.\x93\xdb\xe5\xbf\xc0hEvgS\x92\xbf\xe8\x86\xf2\x94\xc2\xd4\xc2?\x00\x00\x00\x00\x00\x00\xf0\xbf6\xc6\xe3g&\xa3\xeb?\x00\x00\x00\x00\x00\x00\xf0?Jgh?\xcd\xc7\xe4\xbfp\x11v\x18\xba\xe3\xca?\x04\xd4\xed\xab\xeab\xe9\xbf\x00\x00\x00\x00\x00\x00\xf0\xbfn\x90Z\xa0\x04<\xe1\xbf\x90\xa4\x81o\x84w\xbb\xbf8\x8d\xfbl\x0b+\xe9?\xf0I\x86\xc2\xb3\x08\xd1?\xd0\xe8\xe3\xea\xfdR\xea\xbf\xf4\x1b\x8fPO\xa9\xe2?\x00\x00\x00\x00\x00\x00\xf0?\x00\x00\x00\x00\x00\x00\xf0?"\\\xde\xf0\x8cd\xdd\xbf\xb4\x10\xd8\xd7\x95\x83\xcd?\x9c\xa5\xee\xbb\x1a\xc3\xeb\xbf 1s\xd5Y\x1d\xc0\xbf\x0e\xf4d\x07 ?\xed?\xa0\xc2\x1e\x01\x04m\xd7?\x80D\x01\xe7\x12\xe2\xca\xbf\x00\x00\x00\x00\x00\x00\xf0\xbf\x00\x00\x00\x00\x00\x00\xf0\xbf`\xb0\xf8\xd4\x9e\xd0\xce?,\xf73XJi\xee?'
p96
tp97
bsg41
I0
sbssS'fitnessList'
p98
(lp99
g7
(g11
S'\x00\x00\x00\xca\xd2\x15\xb2?'
p100
tp101
Rp102
ag102
ag102
ag7
(g11
S'\x00\x00\x00<0\x9c\xb8?'
p103
tp104
Rp105
ag105
ag105
ag7
(g11
S'\x00\x00\x00\xece\xdb\xb8?'
p106
tp107
Rp108
ag108
ag108
ag7
(g11
S'\x00\x00\x00\xc6\xdfK\xb9?'
p109
tp110
Rp111
ag111
ag111
ag7
(g11
S'\x00\x00\x80\xe4\xa9\x99\xf8?'
p112
tp113
Rp114
ag114
ag7
(g11
S'\x00\x00\x80\xbf\x05\xfe\xfe?'
p115
tp116
Rp117
ag7
(g11
S'\x00\x00@\x00\x08\x94\t@'
p118
tp119
Rp120
ag120
ag120
ag120
ag120
ag120
ag120
ag120
ag120
ag120
ag7
(g11
S'\x00\x00\xe0n\xa0"\x0f@'
p121
tp122
Rp123
ag123
ag123
ag123
ag123
ag7
(g11
S'\x00\x00\x90g\xae \x19@'
p124
tp125
Rp126
ag126
ag126
ag126
ag126
ag126
ag126
ag126
ag126
ag126
ag126
ag126
ag126
ag126
ag126
ag126
ag126
ag126
ag126
ag126
ag126
ag126
ag126
ag126
ag126
ag126
ag126
ag126
ag126
ag126
ag126
ag7
(g11
S'\x00\x00P\xa4m\x8f\x1f@'
p127
tp128
Rp129
ag129
ag129
ag129
ag129
ag129
ag129
ag129
ag129
ag129
ag129
ag129
ag129
ag129
ag129
ag129
ag129
ag129
ag129
ag129
ag129
ag7
(g11
S'\x00\x00P\xa4m\x8f\x1f@'
p130
tp131
Rp132
ag132
ag132
ag132
ag132
ag132
ag132
ag132
ag132
ag132
ag132
ag132
ag132
ag132
ag7
(g11
S'\x00\x00 \xd4d  @'
p133
tp134
Rp135
ag135
ag135
ag135
ag135
ag135
ag135
ag135
ag135
ag135
ag135
ag135
ag135
ag135
ag135
ag135
ag135
ag135
ag135
ag135
ag135
ag135
ag135
ag135
ag135
ag135
ag135
ag135
ag135
ag135
ag135
ag135
ag135
ag135
ag135
ag135
ag135
ag135
ag135
ag135
ag135
ag135
ag7
(g11
S'\x00\x00\xf8\xf6\xe4~ @'
p136
tp137
Rp138
ag138
ag138
ag138
ag138
ag138
ag138
ag138
ag138
ag138
ag138
ag138
ag138
ag138
ag138
ag138
ag138
ag138
ag138
ag138
ag138
ag138
ag138
ag138
ag138
ag138
ag138
ag138
ag138
ag138
ag138
ag138
ag138
ag138
ag7
(g11
S'\x00\x00\xf8\xf6\xe4~ @'
p139
tp140
Rp141
ag141
ag141
ag141
ag141
ag141
ag141
ag141
ag141
ag141
ag141
ag141
ag141
ag141
ag141
ag141
ag141
ag141
ag141
ag141
ag141
ag141
ag141
ag141
ag141
ag141
ag141
ag141
ag141
ag141
ag141
ag141
ag141
ag141
ag141
ag141
ag141
ag141
ag141
ag141
ag141
ag141
ag141
ag141
ag141
ag141
ag141
ag141
ag141
ag141
ag141
ag141
ag141
ag141
ag141
ag141
ag141
ag141
ag141
ag141
ag141
ag141
ag141
ag141
ag141
ag141
ag141
ag141
ag141
ag141
ag141
ag141
ag141
ag141
ag141
ag141
ag141
ag141
ag141
ag141
ag141
ag141
ag141
ag141
ag141
ag141
ag141
ag141
ag141
ag141
ag141
ag141
ag141
ag141
ag141
ag141
ag141
ag141
ag141
ag141
ag141
ag141
ag141
ag141
ag141
ag141
ag141
ag141
ag141
ag141
ag141
ag141
ag141
ag141
ag141
ag141
ag141
ag141
ag141
ag141
ag141
ag141
ag141
ag141
ag141
ag141
ag141
ag141
ag141
ag141
ag141
ag141
ag141
ag141
ag141
ag141
ag141
ag141
ag141
ag141
ag141
ag141
ag141
ag141
ag141
ag141
ag141
ag141
ag141
ag141
ag141
ag141
ag141
ag141
ag141
ag141
ag141
ag141
ag141
ag141
ag141
ag141
ag141
ag141
ag141
ag141
ag141
ag141
ag141
ag141
ag141
ag141
ag141
ag141
ag141
ag141
ag141
ag141
ag141
ag141
ag141
ag141
ag141
ag141
ag141
ag141
ag141
ag141
ag141
ag141
ag141
ag141
ag141
ag141
ag141
ag141
ag141
ag141
ag141
ag141
ag141
ag141
ag141
ag141
ag141
ag141
ag141
ag141
ag141
ag141
ag141
ag141
ag141
ag141
ag141
ag141
ag141
ag141
ag141
ag141
ag141
ag141
ag141
ag141
ag141
ag141
ag141
ag141
ag141
ag141
ag141
ag141
ag141
ag141
ag141
ag141
ag141
ag141
ag141
ag141
ag141
ag141
ag141
ag141
ag141
ag141
ag141
ag141
ag141
ag141
ag141
ag141
ag141
ag141
ag141
ag141
ag141
ag141
ag141
ag141
ag141
ag141
ag141
ag141
ag141
ag141
ag141
ag141
ag141
ag141
ag141
ag141
ag141
ag141
ag141
ag141
ag141
ag141
ag141
ag141
ag141
ag141
ag141
ag141
ag141
ag141
ag141
ag141
ag141
ag141
ag141
ag141
ag141
ag141
ag141
ag141
ag141
ag141
ag141
ag141
ag141
ag141
ag141
ag141
ag141
ag141
ag141
ag141
ag141
ag141
ag141
ag141
ag141
ag141
ag141
ag141
ag141
ag141
ag141
ag141
ag141
ag141
ag141
ag141
ag141
ag141
ag141
ag141
ag141
ag141
ag141
ag141
ag141
ag141
ag141
ag141
ag141
ag141
ag141
ag141
ag141
ag141
ag141
ag141
ag141
ag141
ag141
ag141
ag141
ag141
ag141
ag141
ag141
ag141
ag141
ag141
ag141
ag141
ag141
ag141
ag141
ag141
ag141
ag141
ag141
ag141
ag141
ag141
ag141
ag141
ag141
ag141
ag141
ag141
ag141
ag141
ag141
ag141
ag141
ag141
ag141
ag141
ag141
ag141
ag141
ag141
ag141
ag141
ag141
ag141
ag141
ag141
ag141
ag141
ag141
ag141
ag141
ag141
ag141
ag141
ag141
ag141
ag141
ag141
ag141
ag141
ag141
ag141
ag141
ag141
ag141
ag141
ag141
ag141
ag141
ag141
ag141
ag141
ag141
ag141
ag141
ag141
ag141
ag141
ag141
ag141
ag141
ag141
ag141
ag141
ag141
ag141
ag141
ag141
ag141
ag141
ag141
ag141
ag141
ag141
ag141
ag141
ag141
ag141
ag141
ag141
ag141
ag141
ag141
ag141
ag141
ag141
ag141
ag141
ag141
ag141
ag141
ag141
ag141
ag141
ag141
ag141
ag141
ag141
ag141
ag141
ag141
ag141
ag141
ag141
ag141
ag141
ag141
ag141
ag141
ag141
ag141
ag141
ag141
ag141
ag141
ag141
ag141
ag141
ag141
ag141
ag141
ag141
ag141
ag141
ag141
ag141
ag141
ag141
ag141
ag141
ag141
ag141
ag141
ag141
ag141
ag141
ag141
ag141
ag141
ag141
ag141
ag141
ag141
ag141
ag141
ag141
ag141
ag141
ag141
ag141
ag141
ag141
ag141
ag141
ag141
ag141
ag141
ag141
ag141
ag141
ag141
ag141
ag141
ag141
ag141
ag141
ag141
ag141
ag141
ag141
ag141
ag141
ag141
ag141
ag141
ag141
ag141
ag141
ag141
ag141
ag141
ag141
ag141
ag141
ag7
(g11
S'\x00\x00\xf0*\xda\xaf @'
p142
tp143
Rp144
ag144
ag144
ag144
ag144
ag144
ag144
ag144
ag144
ag144
ag144
ag144
ag144
ag144
ag144
ag144
ag144
ag144
ag144
ag144
ag144
ag144
ag144
ag144
ag144
ag144
ag144
ag144
ag144
ag144
ag144
ag144
ag144
ag144
ag144
ag144
ag144
ag144
ag144
ag144
ag144
ag144
ag144
ag144
ag144
ag7
(g11
S'\x00\x00\xc8\xa6\x05o!@'
p145
tp146
Rp147
ag147
ag147
ag147
ag147
ag147
ag147
ag147
ag147
ag147
ag147
ag147
ag147
ag147
ag147
ag147
ag147
ag147
ag147
ag147
ag147
ag147
ag147
ag147
ag147
ag147
ag147
ag147
ag147
ag147
ag147
ag147
ag147
ag147
ag147
ag147
ag147
ag147
ag147
ag147
ag147
ag147
ag147
ag147
ag147
ag147
ag147
ag147
ag147
ag147
ag147
ag147
ag147
ag147
ag147
ag147
ag147
ag147
ag147
ag147
ag147
ag147
ag147
ag147
ag147
ag147
ag147
ag147
ag147
ag147
ag147
ag147
ag147
ag147
ag147
ag147
ag147
ag147
ag147
ag147
ag147
ag147
ag147
ag147
ag147
ag147
ag147
ag147
ag147
ag147
ag147
ag147
ag147
ag147
ag147
ag147
ag147
ag147
ag147
ag147
ag147
ag147
ag147
ag147
ag147
ag147
ag147
ag147
ag147
ag147
ag147
ag147
ag147
ag147
ag147
ag147
ag147
ag147
ag147
ag147
ag147
ag147
ag147
ag147
ag147
ag147
ag147
ag147
ag147
ag147
ag147
ag147
ag147
ag147
ag147
ag147
ag147
ag147
ag147
ag147
ag147
ag147
ag147
ag147
ag147
ag147
ag147
ag147
ag147
ag147
ag147
ag147
ag147
ag147
ag147
ag147
ag147
ag147
ag147
ag147
ag147
ag147
ag147
ag147
ag147
ag147
ag147
ag147
ag147
ag147
ag147
ag147
ag147
ag147
ag147
ag147
ag147
ag147
ag147
ag147
ag147
ag147
ag147
ag147
ag147
ag147
ag147
ag147
ag147
ag147
ag147
ag147
ag147
ag147
ag147
ag147
ag147
ag147
ag147
ag147
ag147
ag147
ag147
ag147
ag147
ag147
ag147
ag147
ag147
ag147
ag147
ag147
ag147
ag147
ag147
ag147
ag147
ag147
ag147
ag147
ag147
ag147
ag147
ag147
ag147
ag147
ag147
ag147
ag147
ag147
ag147
ag147
ag147
ag147
ag147
ag147
ag147
ag147
ag147
ag147
ag147
ag147
ag147
ag147
ag147
ag147
ag147
ag147
ag147
ag147
ag147
ag147
ag147
ag147
ag147
ag147
ag147
ag147
ag147
ag147
ag147
ag147
ag147
ag147
ag147
ag147
ag147
ag147
ag147
ag147
ag147
ag147
ag147
ag147
ag147
ag147
ag147
ag147
ag147
ag147
ag147
ag147
ag147
ag147
ag147
ag147
ag147
ag147
ag147
ag147
ag147
ag147
ag147
ag147
ag147
ag147
ag147
ag147
ag147
ag147
ag147
ag147
ag147
ag147
ag147
ag147
ag147
ag147
ag147
ag147
ag147
ag147
ag147
ag147
ag147
ag147
ag147
ag147
ag147
ag147
ag147
ag147
ag147
ag147
ag147
ag147
ag147
ag147
ag147
ag147
ag147
ag147
ag147
ag147
ag147
ag147
ag147
ag147
ag147
ag147
ag147
ag147
ag147
ag147
ag147
ag147
ag147
ag147
ag147
ag147
ag147
ag147
ag147
ag147
ag147
ag147
ag147
ag147
ag147
ag147
ag147
ag147
ag147
ag147
ag147
ag147
ag147
ag147
ag147
ag147
ag147
ag147
ag147
ag147
ag147
ag147
ag147
ag147
ag147
ag147
ag147
ag147
ag147
ag147
ag147
ag147
ag147
ag147
ag147
ag147
ag147
ag147
ag147
ag147
ag147
ag147
ag147
ag147
ag147
ag147
ag147
ag147
ag147
ag147
ag147
ag147
ag147
ag147
ag147
ag147
ag147
ag147
ag147
ag147
ag147
ag147
ag147
ag147
ag147
ag147
ag147
ag147
ag147
ag147
ag147
ag147
ag147
ag147
ag147
ag147
ag147
ag147
ag147
ag147
ag147
ag147
ag147
ag147
ag147
ag147
ag147
ag147
ag147
ag147
ag147
ag147
ag147
ag147
ag147
ag147
ag147
ag147
ag147
ag147
ag147
ag147
ag147
ag147
ag147
ag147
ag147
ag147
ag147
ag147
ag147
ag147
ag147
ag147
ag147
ag147
ag147
ag147
ag147
ag147
ag147
ag147
ag147
ag147
ag147
ag147
ag147
ag147
ag147
ag147
ag147
ag147
ag147
ag147
ag147
ag147
ag147
ag147
ag147
ag147
ag147
ag147
ag147
ag147
ag147
ag147
ag147
ag147
ag147
ag147
ag147
ag147
ag147
ag147
ag147
ag147
ag147
ag147
ag147
ag147
ag147
ag147
ag147
ag147
ag147
ag147
ag147
ag147
ag147
ag147
ag147
ag147
ag147
ag147
ag147
ag147
ag147
ag147
ag147
ag147
ag147
ag147
ag147
ag147
ag147
ag147
ag147
ag147
ag147
ag147
ag147
ag147
ag147
ag147
ag147
ag147
ag147
ag147
ag147
ag147
ag147
ag147
ag147
ag147
ag147
ag147
ag147
ag147
ag147
ag147
ag147
ag147
ag147
ag147
ag147
ag147
ag147
ag147
ag147
ag147
ag147
ag147
ag147
ag147
ag147
ag147
ag147
ag147
ag147
ag147
ag147
ag147
ag147
ag147
ag147
ag147
ag147
ag147
ag147
ag147
ag147
ag147
ag147
ag147
ag147
ag147
ag147
ag147
ag147
ag147
ag147
ag147
ag147
ag147
ag147
ag147
ag147
ag147
ag147
ag147
ag147
ag147
ag147
ag147
ag147
ag147
ag147
ag147
ag147
ag147
ag147
ag147
ag147
ag147
ag147
ag147
ag147
ag147
ag147
ag147
ag147
ag147
ag147
ag147
ag147
ag147
ag147
ag147
ag147
ag147
ag147
ag147
ag147
ag147
ag147
ag147
ag147
ag147
ag147
ag147
ag147
ag147
ag147
ag147
ag147
ag147
ag147
ag147
ag147
ag147
ag147
ag147
ag147
ag147
ag147
ag147
ag147
ag147
ag147
ag147
ag147
ag147
ag147
ag147
ag147
ag147
ag147
ag147
ag147
ag147
ag147
ag7
(g11
S'\x00\x00H]\xeb\x90!@'
p148
tp149
Rp150
ag150
ag150
ag150
ag150
ag150
ag150
ag150
ag150
ag150
ag150
ag150
ag150
ag150
ag150
ag150
ag150
ag150
ag150
ag150
ag150
ag150
ag150
ag150
ag150
ag150
ag150
ag150
ag150
ag150
ag150
ag150
ag150
ag150
ag150
ag150
ag150
ag150
ag150
ag150
ag150
ag150
ag150
ag150
ag150
ag150
ag150
ag150
ag150
ag150
ag150
ag150
ag150
ag150
ag150
ag150
ag150
ag150
ag150
ag150
ag150
ag150
ag150
ag150
ag150
ag150
ag150
ag150
ag150
ag150
ag150
ag150
ag150
ag150
ag150
ag150
ag150
ag150
ag150
ag150
ag150
ag150
ag150
ag150
ag150
ag150
ag150
ag150
ag150
ag150
ag150
ag150
ag150
ag150
ag150
ag150
ag150
ag150
ag150
ag150
ag150
ag150
ag150
ag150
ag150
ag150
ag150
ag150
ag150
ag150
ag150
ag150
ag150
ag150
ag150
ag150
ag150
ag150
ag150
ag150
ag150
ag150
ag150
ag150
ag150
ag150
ag150
ag150
ag150
ag150
ag150
ag150
ag150
ag150
ag150
ag150
ag150
ag150
ag150
ag150
ag150
ag150
ag150
ag150
ag150
ag150
ag150
ag150
ag150
ag150
ag150
ag150
ag150
ag150
ag150
ag150
ag150
ag150
ag150
ag150
ag150
ag150
ag150
ag150
ag150
ag150
ag150
ag150
ag150
ag150
ag150
ag150
ag150
ag150
ag150
ag150
ag150
ag150
ag150
ag150
ag150
ag150
ag150
ag150
ag150
ag150
ag150
ag150
ag150
ag150
ag150
ag150
ag150
ag150
ag150
ag150
ag150
ag150
ag150
ag150
ag150
ag150
ag150
ag150
ag150
ag150
ag150
ag150
ag150
ag150
ag150
ag150
ag150
ag150
ag150
ag150
ag150
ag7
(g11
S'\x00\x00\xa0\xdb,\x83"@'
p151
tp152
Rp153
ag153
ag153
ag153
ag153
ag153
ag153
ag153
ag153
ag153
ag153
ag153
ag153
ag153
ag153
ag153
ag153
ag153
ag153
ag153
ag153
ag153
ag153
ag153
ag153
ag153
ag153
ag153
ag153
ag153
ag153
ag153
ag153
ag153
ag153
ag153
ag153
ag153
ag153
ag153
ag153
ag153
ag153
ag153
ag153
ag153
ag153
ag153
ag153
ag153
ag153
ag153
ag153
ag153
ag153
ag153
ag153
ag153
ag153
ag153
ag153
ag153
ag153
ag153
ag153
ag153
ag153
ag153
ag153
ag153
ag153
ag153
ag153
ag153
ag153
ag153
ag153
ag153
ag153
ag153
ag153
ag153
ag153
ag153
ag153
ag153
ag153
ag153
ag153
ag153
ag153
ag153
ag153
ag153
ag153
ag153
ag153
ag153
ag153
ag153
ag153
ag153
ag153
ag153
ag153
ag153
ag153
ag153
ag153
ag153
ag153
ag153
ag153
ag153
ag153
ag153
ag153
ag153
ag153
ag153
ag153
ag153
ag153
ag153
ag153
ag153
ag153
ag153
ag153
ag153
ag153
ag153
ag153
ag153
ag153
ag153
ag153
ag153
ag153
ag153
ag153
ag153
ag153
ag153
ag153
ag153
ag7
(g11
S'\x00\x00\xd0\xad%\xab"@'
p154
tp155
Rp156
ag156
ag156
ag156
ag156
ag156
ag156
ag156
ag156
ag156
ag156
ag156
ag156
ag156
ag156
ag156
ag156
ag156
ag156
ag156
ag156
ag156
ag156
ag156
ag156
ag156
ag156
ag156
ag156
ag156
ag156
ag156
ag156
ag156
ag156
ag156
ag156
ag156
ag156
ag156
ag156
ag156
ag156
ag156
ag156
ag156
ag156
ag156
ag156
ag156
ag156
ag156
ag156
ag156
ag156
ag156
ag156
ag156
ag156
ag156
ag156
ag156
ag156
ag156
ag156
ag156
ag156
ag156
ag156
ag156
ag156
ag156
ag156
ag156
ag156
ag156
ag156
ag156
ag156
ag156
ag156
ag156
ag156
ag156
ag156
ag156
ag156
ag156
ag156
ag156
ag156
ag156
ag156
ag156
ag156
ag156
ag156
ag156
ag156
ag156
ag156
ag156
ag156
ag156
ag156
ag156
ag156
ag156
ag156
ag156
ag156
ag156
ag156
ag156
ag156
ag156
ag156
ag156
ag156
ag156
ag156
ag156
ag156
ag156
ag156
ag156
ag156
ag156
ag156
ag156
ag156
ag156
ag156
ag156
ag156
ag156
ag156
ag156
ag156
ag156
ag156
ag156
ag156
ag156
ag156
ag156
ag156
ag156
ag156
ag156
ag156
ag156
ag156
ag156
ag156
ag156
ag156
ag156
ag156
ag156
ag156
ag156
ag156
ag156
ag156
ag156
ag156
ag156
ag156
ag156
ag156
ag156
ag156
ag156
ag156
ag156
ag156
ag156
ag156
ag156
ag156
ag156
ag156
ag156
ag156
ag156
ag156
ag156
ag156
ag156
ag156
ag156
ag156
ag156
ag156
ag156
ag156
ag156
ag156
ag156
ag156
ag156
ag156
ag156
ag156
ag156
ag156
ag156
ag156
ag156
ag156
ag156
ag156
ag156
ag156
ag156
ag156
ag156
ag156
ag156
ag156
ag156
ag156
ag156
ag156
ag156
ag156
ag156
ag156
ag156
ag156
ag156
ag156
ag156
ag156
ag156
ag156
ag156
ag156
ag156
ag156
ag156
ag156
ag156
ag156
ag156
ag156
ag156
ag156
ag156
ag156
ag156
ag156
ag156
ag156
ag156
ag156
ag156
ag156
ag156
ag156
ag156
ag156
ag156
ag156
ag156
ag156
ag156
ag156
ag156
ag156
ag156
ag156
ag156
ag156
ag156
ag156
ag156
ag156
ag156
ag156
ag156
ag156
ag156
ag156
ag156
ag156
ag156
ag156
ag156
ag156
ag156
ag156
ag156
ag156
ag156
ag156
ag156
ag156
ag156
ag156
ag156
ag156
ag156
ag156
ag156
ag156
ag156
ag156
ag156
ag156
ag156
ag156
ag156
ag156
ag156
ag156
ag156
ag156
ag156
ag156
ag156
ag156
ag156
ag156
ag156
ag156
ag156
ag156
ag156
ag156
ag156
ag156
ag156
ag156
ag156
ag156
ag156
ag156
ag156
ag156
ag156
ag156
ag156
ag156
ag156
ag156
ag156
ag156
ag156
ag156
ag156
ag156
ag156
ag156
ag156
ag156
ag156
ag156
ag156
ag156
ag156
ag156
ag156
ag156
ag156
ag156
ag156
ag156
ag156
ag156
ag156
ag156
ag156
ag156
ag156
ag156
ag156
ag156
ag156
ag156
ag156
ag156
ag156
ag156
ag156
ag156
ag156
ag156
ag156
ag156
ag156
ag156
ag156
ag156
ag156
ag156
ag156
ag156
ag156
ag156
ag156
ag156
ag156
ag156
ag156
ag156
ag156
ag156
ag156
ag156
ag156
ag156
ag156
ag156
ag156
ag156
ag156
ag156
ag156
ag156
ag156
ag156
ag156
ag156
ag156
ag156
ag156
ag156
ag156
ag156
ag156
ag156
ag156
ag156
ag156
ag156
ag156
ag156
ag156
ag156
ag156
ag156
ag156
ag156
ag156
ag156
ag156
ag156
ag156
ag156
ag156
ag156
ag156
ag156
ag156
ag156
ag156
ag156
ag156
ag156
ag156
ag156
ag156
ag156
ag156
ag156
ag156
ag156
ag156
ag156
ag156
ag156
ag156
ag156
ag156
ag156
ag156
ag156
ag156
ag156
ag156
ag156
ag156
ag156
ag156
ag156
ag156
ag156
ag156
ag156
ag156
ag156
ag156
ag156
ag156
ag156
ag156
ag156
ag156
ag156
ag156
ag156
ag156
ag156
ag156
ag156
ag156
ag156
ag156
ag156
ag156
ag156
ag156
ag156
ag156
ag156
ag156
ag156
ag156
ag156
ag156
ag156
ag156
ag156
ag156
ag156
ag156
ag156
ag156
ag156
ag156
ag156
ag156
ag156
ag156
ag156
ag156
ag156
ag156
ag156
ag156
ag156
ag156
ag156
ag156
ag156
ag156
ag156
ag156
ag156
ag156
ag156
ag156
ag156
ag156
ag156
ag156
ag156
ag156
ag156
ag156
ag156
ag156
ag156
ag156
ag156
ag156
ag156
ag156
ag156
ag156
ag156
ag156
ag156
ag156
ag156
ag156
ag156
ag156
ag156
ag156
ag156
ag156
ag156
ag156
ag156
ag156
ag156
ag156
ag156
ag156
ag156
ag156
ag156
ag156
ag156
ag156
ag156
ag156
ag156
ag156
ag156
ag156
ag156
ag156
ag156
ag156
ag156
ag156
ag156
ag156
ag156
ag156
ag156
ag156
ag156
ag156
ag156
ag156
ag156
ag156
ag156
ag156
ag156
ag156
ag156
ag156
ag156
ag156
ag156
ag156
ag156
ag156
ag156
ag156
ag156
ag156
ag156
ag156
ag156
ag156
ag156
ag156
ag156
ag156
ag156
ag156
ag156
ag156
ag156
ag156
ag156
ag156
ag156
ag156
ag156
ag156
ag156
ag156
ag156
ag156
ag156
ag156
ag156
ag156
ag156
ag156
ag156
ag156
ag156
ag156
ag156
ag156
ag156
ag156
ag156
ag156
ag156
ag156
ag156
ag156
ag156
ag156
ag156
ag156
ag156
ag156
ag156
ag156
ag156
ag156
ag156
ag156
ag156
ag156
ag156
ag156
ag156
ag156
ag156
ag156
ag156
ag156
ag156
ag156
ag156
ag156
ag156
ag156
ag156
ag156
ag156
ag156
ag156
ag156
ag156
ag156
ag156
ag156
ag156
ag156
ag156
ag156
ag156
ag156
ag156
ag156
ag156
ag156
ag156
ag156
ag156
ag156
ag156
ag156
ag156
ag156
ag156
ag156
ag156
ag156
ag156
ag156
ag156
ag156
ag156
ag156
ag156
ag156
ag156
ag156
ag156
ag156
ag156
ag156
ag156
ag156
ag156
ag156
ag156
ag156
ag156
ag156
ag156
ag156
ag156
ag156
ag156
ag156
ag156
ag156
ag156
ag156
ag156
ag156
ag156
ag156
ag156
ag156
ag156
ag156
ag156
ag156
ag156
ag156
ag156
ag156
ag156
ag156
ag156
ag156
ag156
ag156
ag156
ag156
ag156
ag156
ag156
ag156
ag156
ag156
ag156
ag156
ag156
ag156
ag156
ag156
ag156
ag156
ag156
ag156
ag156
ag156
ag156
ag156
ag156
ag156
ag156
ag156
ag156
ag156
ag156
ag156
ag156
ag156
ag156
ag156
ag156
ag156
ag156
ag156
ag156
ag156
ag156
ag156
ag156
ag156
ag156
ag156
ag156
ag156
ag156
ag156
ag156
ag156
ag156
ag156
ag156
ag156
ag156
ag156
ag156
ag156
ag156
ag156
ag156
ag156
ag156
ag156
ag156
ag156
ag156
ag156
ag156
ag156
ag156
ag156
ag156
ag156
ag156
ag156
ag156
ag156
ag156
ag156
ag156
ag156
ag156
ag156
ag156
ag156
ag156
ag156
ag156
ag156
ag156
ag156
ag156
ag156
ag156
ag156
ag156
ag156
ag156
ag156
ag156
ag156
ag156
ag156
ag156
ag156
ag156
ag156
ag156
ag156
ag156
ag156
ag156
ag156
ag156
ag156
ag156
ag156
ag156
ag156
ag156
ag156
ag156
ag156
ag156
ag156
ag156
ag156
ag156
ag156
ag156
ag156
ag156
ag156
ag156
ag156
ag156
ag156
ag156
ag156
ag156
ag156
ag156
ag156
ag156
ag156
ag156
ag156
ag156
ag156
ag156
ag156
ag156
ag156
ag156
ag156
ag156
ag156
ag156
ag156
ag156
ag156
ag156
ag156
ag156
ag156
ag156
ag156
ag156
ag156
ag156
ag156
ag156
ag156
ag156
ag156
ag156
ag156
ag156
ag156
ag156
ag156
ag156
ag156
ag156
ag156
ag156
ag156
ag156
ag156
ag156
ag156
ag156
ag156
ag156
ag156
ag156
ag156
ag156
ag156
ag156
ag156
ag156
ag156
ag156
ag156
ag156
ag156
ag156
ag156
ag156
ag156
ag156
ag156
ag156
ag156
ag156
ag156
ag156
ag156
ag156
ag156
ag156
ag156
ag156
ag156
ag156
ag156
ag156
ag156
ag156
ag156
ag156
ag156
ag156
ag156
ag156
ag156
ag156
ag156
ag156
ag156
ag156
ag156
ag156
ag156
ag156
ag156
ag156
ag156
ag156
ag156
ag156
ag156
ag156
ag156
ag156
ag156
ag156
ag156
ag156
ag156
ag156
ag156
ag156
ag156
ag156
ag156
ag156
ag156
ag156
ag156
ag156
ag156
ag156
ag156
ag156
ag156
ag156
ag156
ag156
ag156
ag156
ag156
ag156
ag156
ag156
ag156
ag156
ag156
ag156
ag156
ag156
ag156
ag156
ag156
ag156
ag156
ag156
ag156
ag156
ag156
ag156
ag156
ag156
ag156
ag156
ag156
ag156
ag156
ag156
ag156
ag156
ag156
ag156
ag156
ag156
ag156
ag156
ag156
ag156
ag156
ag156
ag156
ag156
ag156
ag156
ag156
ag156
ag156
ag156
ag156
ag156
ag156
ag156
ag156
ag156
ag156
ag156
ag156
ag156
ag156
ag156
ag156
ag156
ag156
ag156
ag156
ag156
ag156
ag156
ag156
ag156
ag156
ag156
ag156
ag156
ag156
ag156
ag156
ag156
ag156
ag156
ag156
ag156
ag156
ag156
ag156
ag156
ag156
ag156
ag156
ag156
ag156
ag156
ag156
ag156
ag156
ag156
ag156
ag156
ag156
ag156
ag156
ag156
ag156
ag156
ag156
ag156
ag156
ag156
ag156
ag156
ag156
ag156
ag156
ag156
ag156
ag156
ag156
ag156
ag156
ag156
ag156
ag156
ag156
ag156
ag156
ag156
ag156
ag156
ag156
ag156
ag156
ag156
ag156
ag156
ag156
ag156
ag156
ag156
ag156
ag156
ag156
ag156
ag156
ag156
ag156
ag156
ag156
ag156
ag156
ag156
ag156
ag156
ag156
ag156
ag156
ag156
ag156
ag156
ag156
ag156
ag156
ag156
ag156
ag156
ag156
ag156
ag156
ag156
ag156
ag156
ag156
ag156
ag156
ag156
ag156
ag156
ag156
ag156
ag156
ag156
ag156
ag156
ag156
ag156
ag156
ag156
ag156
ag156
ag156
ag156
ag156
ag156
ag156
ag156
ag156
ag156
ag156
ag156
ag156
ag156
ag156
ag156
ag156
ag156
ag156
ag156
ag156
ag156
ag156
ag156
ag156
ag156
ag156
ag156
ag156
ag156
ag156
ag156
ag156
ag156
ag156
ag156
ag156
ag156
ag156
ag156
ag156
ag156
ag156
ag156
ag156
ag156
ag156
ag156
ag156
ag156
ag156
ag156
ag156
ag156
ag156
ag156
ag156
ag156
ag156
ag156
ag156
ag156
ag156
ag156
ag156
ag156
ag156
ag156
ag156
ag156
ag156
ag156
ag156
ag156
ag156
ag156
ag156
ag156
ag156
ag156
ag156
ag156
ag156
ag156
ag156
ag156
ag156
ag156
ag156
ag156
ag156
ag156
ag156
ag156
ag156
ag156
ag156
ag156
ag156
ag156
ag156
ag156
ag156
ag156
ag156
ag156
ag156
ag156
ag156
ag156
ag156
ag156
ag156
ag156
ag156
ag156
ag156
ag156
ag156
ag156
ag156
ag156
ag156
ag156
ag156
ag156
ag156
ag156
ag156
ag156
ag156
ag156
ag156
ag156
ag156
ag156
ag156
ag156
ag156
ag156
ag156
ag156
ag156
ag156
ag156
ag156
ag156
ag156
ag156
ag156
ag156
ag156
ag156
ag156
ag156
ag156
ag156
ag156
ag156
ag156
ag156
ag156
ag156
ag156
ag156
ag156
ag156
ag156
ag156
ag156
ag156
ag156
ag156
ag156
ag156
ag156
ag156
ag156
ag156
ag156
ag156
ag156
ag156
ag156
ag156
ag156
ag156
ag156
ag156
ag156
ag156
ag156
ag156
ag156
ag156
ag156
ag156
ag156
ag156
ag156
ag156
ag156
ag156
ag156
ag156
ag156
ag156
ag156
ag156
ag156
ag156
ag156
ag156
ag156
ag156
ag156
ag156
ag156
ag156
ag156
ag156
ag156
ag156
ag156
ag156
ag156
ag156
ag156
ag156
ag156
ag156
ag156
ag156
ag156
ag156
ag156
ag156
ag156
ag156
ag156
ag156
ag156
ag156
ag156
ag156
ag156
ag156
ag156
ag156
ag156
ag156
ag156
ag156
ag156
ag156
ag156
ag156
ag156
ag156
ag156
ag156
ag156
ag156
ag156
ag156
ag156
ag156
ag156
ag156
ag156
ag156
ag156
ag156
ag156
ag156
ag156
ag156
ag156
ag156
ag156
ag156
ag156
ag156
ag156
ag156
ag156
ag156
ag156
ag156
ag156
ag156
ag156
ag156
ag156
ag156
ag156
ag156
ag156
ag156
ag156
ag156
ag156
ag156
ag156
ag156
ag156
ag156
ag156
ag156
ag156
ag156
ag156
ag156
ag156
ag156
ag156
ag156
ag156
ag156
ag156
ag156
ag156
ag156
ag156
ag156
ag156
ag156
ag156
ag156
ag156
ag156
ag156
ag156
ag156
ag156
ag156
ag156
ag156
ag156
ag156
ag156
ag156
ag156
ag156
ag156
ag156
ag156
ag156
ag156
ag156
ag156
ag156
ag156
ag156
ag156
ag156
ag156
ag156
ag156
ag156
ag156
ag156
ag156
ag156
ag156
ag156
ag156
ag156
ag156
ag156
ag156
ag156
ag156
ag156
ag156
ag156
ag156
ag156
ag156
ag156
ag156
ag156
ag156
ag156
ag156
ag156
ag156
ag156
ag156
ag156
ag156
ag156
ag156
ag156
ag156
ag156
ag156
ag156
ag156
ag156
ag156
ag156
ag156
ag156
ag156
ag156
ag156
ag156
ag156
ag156
ag156
ag156
ag156
ag156
ag156
ag156
ag156
ag156
ag156
ag156
ag156
ag156
ag156
ag156
ag156
ag156
ag156
ag156
ag156
ag156
ag156
ag156
ag156
ag156
ag156
ag156
ag156
ag156
ag156
ag156
ag156
ag156
ag156
ag156
ag156
ag156
ag156
ag156
ag156
ag156
ag156
ag156
ag156
ag156
ag156
ag156
ag156
ag156
ag156
ag156
ag156
ag156
ag156
ag156
ag156
ag156
ag156
ag156
ag156
ag156
ag156
ag156
ag156
ag156
ag156
ag156
ag156
ag156
ag156
ag156
ag156
ag156
ag156
ag156
ag156
ag156
ag156
ag156
ag156
ag156
ag156
ag156
ag156
ag156
ag156
ag156
ag156
ag156
ag156
ag156
ag156
ag156
ag156
ag156
ag156
ag156
ag156
ag156
ag156
ag156
ag156
ag156
ag156
ag156
ag156
ag156
ag156
ag156
ag156
ag156
ag156
ag156
ag156
ag156
ag156
ag156
ag156
ag156
ag156
ag156
ag156
ag156
ag156
ag156
ag156
ag156
ag156
ag156
ag156
ag156
ag156
ag156
ag156
ag156
ag156
ag156
ag156
ag156
ag156
ag156
ag156
ag156
ag156
ag156
ag156
ag156
ag156
ag156
ag156
ag156
ag156
ag156
ag156
ag156
ag156
ag156
ag156
ag156
ag156
ag156
ag156
ag156
ag156
ag156
ag156
ag156
ag156
ag156
ag156
ag156
ag156
ag156
ag156
ag156
ag156
ag156
ag156
ag156
ag156
ag156
ag156
ag156
ag156
ag156
ag156
ag156
ag156
ag156
ag156
ag156
ag156
ag156
ag156
ag156
ag156
ag156
ag156
ag156
ag156
ag156
ag156
ag156
ag156
ag156
ag156
ag156
ag156
ag156
ag156
ag156
ag156
ag156
ag156
ag156
ag156
ag156
ag156
ag156
ag156
ag156
ag156
ag156
ag156
ag156
ag156
ag156
ag156
ag156
ag156
ag156
ag156
ag156
ag156
ag156
ag156
ag156
ag156
ag156
ag156
ag156
ag156
ag156
ag156
ag156
ag156
ag156
ag156
ag156
ag156
ag156
ag156
ag156
ag156
ag156
ag156
ag156
ag156
ag156
ag156
ag156
ag156
ag156
ag156
ag156
ag156
ag156
ag156
ag156
ag156
ag156
ag156
ag156
ag156
ag156
ag156
ag156
ag156
ag156
ag156
ag156
ag156
ag156
ag156
ag156
ag156
ag156
ag156
ag156
ag156
ag156
ag156
ag156
ag156
ag156
ag156
ag156
ag156
ag156
ag156
ag156
ag156
ag156
ag156
ag156
ag156
ag156
ag156
ag156
ag156
ag156
ag156
ag156
ag156
ag156
ag156
ag156
ag156
ag156
ag156
ag156
ag156
ag156
ag156
ag156
ag156
ag156
ag156
ag156
ag156
ag156
ag156
ag156
ag156
ag156
ag156
ag156
ag156
ag156
ag156
ag156
ag156
ag156
ag156
ag156
ag156
ag156
ag156
ag156
ag156
ag156
ag156
ag156
ag156
ag156
ag156
ag156
ag156
ag156
ag156
ag156
ag156
ag156
ag156
ag156
ag156
ag156
ag156
ag156
ag156
ag156
ag156
ag156
ag156
ag156
ag156
ag156
ag156
ag156
ag156
ag156
ag156
ag156
ag156
ag156
ag156
ag156
ag156
ag156
ag156
ag156
ag156
ag156
ag156
ag156
ag156
ag156
ag156
ag156
ag156
ag156
ag156
ag156
ag156
ag156
ag156
ag156
ag156
ag156
ag156
ag156
ag156
ag156
ag156
ag156
ag156
ag156
ag156
ag156
ag156
ag156
ag156
ag156
ag156
ag156
ag156
ag156
ag156
ag156
ag156
ag156
ag156
ag156
ag156
ag156
ag156
ag156
ag156
ag156
ag156
ag156
ag156
ag156
ag156
ag156
ag156
ag156
ag156
ag156
ag156
ag156
ag156
ag156
ag156
ag156
ag156
ag156
ag156
ag156
ag156
ag156
ag156
ag156
ag156
ag156
ag156
ag156
ag156
ag156
ag156
ag156
ag156
ag156
ag156
ag156
ag156
ag156
ag156
ag156
ag156
ag156
ag156
ag156
ag156
ag156
ag156
ag156
ag156
ag156
ag156
ag156
ag156
ag156
ag156
ag156
ag156
ag156
ag156
ag156
ag156
ag156
ag156
ag156
ag156
ag156
ag156
ag156
ag156
ag156
ag156
ag156
ag156
ag156
ag156
ag156
ag156
ag156
ag156
ag156
ag156
ag156
ag156
ag156
ag156
ag156
ag156
ag156
ag156
ag156
ag156
ag156
ag156
ag156
ag156
ag156
ag156
ag156
ag156
ag156
ag156
ag156
ag156
ag156
ag156
ag156
ag156
ag156
ag156
ag156
ag156
ag156
ag156
ag156
ag156
ag156
ag156
ag156
ag156
ag156
ag156
ag156
ag156
ag156
ag156
ag156
ag156
ag156
ag156
ag156
ag156
ag156
ag156
ag156
ag156
ag156
ag156
ag156
ag156
ag156
ag156
ag156
ag156
ag156
ag156
ag156
ag156
ag156
ag156
ag156
ag156
ag156
ag156
ag156
ag156
ag156
ag156
ag156
ag156
ag156
ag156
ag156
ag156
ag156
ag156
ag156
ag156
ag156
ag156
ag156
ag156
ag156
ag156
ag156
ag156
ag156
ag156
ag156
ag156
ag156
ag156
ag156
ag156
ag156
ag156
ag156
ag156
ag156
ag156
ag156
ag156
ag156
ag156
ag156
ag156
ag156
ag156
ag156
ag156
ag156
ag156
ag156
ag156
ag156
ag156
ag156
ag156
ag156
ag156
ag156
ag156
ag156
ag156
ag156
ag156
ag156
ag156
ag156
ag156
ag156
ag156
ag156
ag156
ag156
ag156
ag156
ag156
ag156
ag156
ag156
ag156
ag156
ag156
ag156
ag156
ag156
ag156
ag156
ag156
ag156
ag156
ag156
ag156
ag156
ag156
ag156
ag156
ag156
ag156
ag156
ag156
ag156
ag156
ag156
ag156
ag156
ag156
ag156
ag156
ag156
ag156
ag156
ag156
ag156
ag156
ag156
ag156
ag156
ag156
ag156
ag156
ag156
ag156
ag156
ag156
ag156
ag156
ag156
ag156
ag156
ag156
ag156
ag156
ag156
ag156
ag156
ag156
ag156
ag156
ag156
ag156
ag156
ag156
ag156
ag156
ag156
ag156
ag156
ag156
ag156
ag156
ag156
ag156
ag156
ag156
ag156
ag156
ag156
ag156
ag156
ag156
ag156
ag156
ag156
ag156
ag156
ag156
ag156
ag156
ag156
ag156
ag156
ag156
ag156
ag156
ag156
ag156
ag156
ag156
ag156
ag156
ag156
ag156
ag156
ag156
ag156
ag156
ag156
ag156
ag156
ag156
ag156
ag156
ag156
ag156
ag156
ag156
ag156
ag156
ag156
ag156
ag156
ag156
ag156
ag156
ag156
ag156
ag156
ag156
ag156
ag156
ag156
ag156
ag156
ag156
ag156
ag156
ag156
ag156
ag156
ag156
ag156
ag156
ag156
ag156
ag156
ag156
ag156
ag156
ag156
ag156
ag156
ag156
ag156
ag156
ag156
ag156
ag156
ag156
ag156
ag156
ag156
ag156
ag156
ag156
ag156
ag156
ag156
ag156
ag156
ag156
ag156
ag156
ag156
ag156
ag156
ag156
ag156
ag156
ag156
ag156
ag156
ag156
ag156
ag156
ag156
ag156
ag156
ag156
ag156
ag156
ag156
ag156
ag156
ag156
ag156
ag156
ag156
ag156
ag156
ag156
ag156
ag156
ag156
ag156
ag156
ag156
ag156
ag156
ag156
ag156
ag156
ag156
ag156
ag156
ag156
ag156
ag156
ag156
ag156
ag156
ag156
ag156
ag156
ag156
ag156
ag156
ag156
ag156
ag156
ag156
ag156
ag156
ag156
ag156
ag156
ag156
ag156
ag156
ag156
ag156
ag156
ag156
ag156
ag156
ag156
ag156
ag156
ag156
ag156
ag156
ag156
ag156
ag156
ag156
ag156
ag156
ag156
ag156
ag156
ag156
ag156
ag156
ag156
ag156
ag156
ag156
ag156
ag156
ag156
ag156
ag156
ag156
ag156
ag156
ag156
ag156
ag156
ag156
ag156
ag156
ag156
ag156
ag156
ag156
ag156
ag156
ag156
ag156
ag156
ag156
ag156
ag156
ag156
ag156
ag156
ag156
ag156
ag156
ag156
ag156
ag156
ag156
ag156
ag156
ag156
ag156
ag156
ag156
ag156
ag156
ag156
ag156
ag156
ag156
ag156
ag156
ag156
ag156
ag156
ag156
ag156
ag156
ag156
ag156
ag156
ag156
ag156
ag156
ag156
ag156
ag156
ag156
ag156
ag156
ag156
ag156
ag156
ag156
ag156
ag156
ag156
ag156
ag156
ag156
ag156
ag156
ag156
ag156
ag156
ag156
ag156
ag156
ag156
ag156
ag156
ag156
ag156
ag156
ag156
ag156
ag156
ag156
ag156
ag156
ag156
ag156
ag156
ag156
ag156
ag156
ag156
ag156
ag156
ag156
ag156
ag156
ag156
ag156
ag156
ag156
ag156
ag156
ag156
ag156
ag156
ag156
ag156
ag156
ag156
ag156
ag156
ag156
ag156
ag156
ag156
ag156
ag156
ag156
ag156
ag156
ag156
ag156
ag156
ag156
ag156
ag156
ag156
ag156
ag156
ag156
ag156
ag156
ag156
ag156
ag156
ag156
ag156
ag156
ag156
ag156
ag156
ag156
ag156
ag156
ag156
ag156
ag156
ag156
ag156
ag156
ag156
ag156
ag156
ag156
ag156
ag156
ag156
ag156
ag156
ag156
ag156
ag156
ag156
ag156
ag156
ag156
ag156
ag156
ag156
ag156
ag156
ag156
ag156
ag156
ag156
ag156
ag156
ag156
ag156
ag156
ag156
ag156
ag156
ag156
ag156
ag156
ag156
ag156
ag156
ag156
ag156
ag156
ag156
ag156
ag156
ag156
ag156
ag156
ag156
ag156
ag156
ag156
ag156
ag156
ag156
ag156
ag156
ag156
ag156
ag156
ag156
ag156
ag156
ag156
ag156
ag156
ag156
ag156
ag156
ag156
ag156
ag156
ag156
ag156
ag156
ag156
ag156
ag156
ag156
ag156
ag156
ag156
ag156
ag156
ag156
ag156
ag156
ag156
ag156
ag156
ag156
ag156
ag156
ag156
ag156
ag156
ag156
ag156
ag156
ag156
ag156
ag156
ag156
ag156
ag156
ag156
ag156
ag156
ag156
ag156
ag156
ag156
ag156
ag156
ag156
ag156
ag156
ag156
ag156
ag156
ag156
ag156
ag156
ag156
ag156
ag156
ag156
ag156
ag156
ag156
ag156
ag156
ag156
ag156
ag156
ag156
ag156
ag156
ag156
ag156
ag156
ag156
ag156
ag156
ag156
ag156
ag156
ag156
ag156
ag156
ag156
ag156
ag156
ag156
ag156
ag156
ag156
ag156
ag156
ag156
ag156
ag156
ag156
ag156
ag156
ag156
ag156
ag156
ag156
ag156
ag156
ag156
ag156
ag156
ag156
ag156
ag156
ag156
ag156
ag156
ag156
ag156
ag156
ag156
ag156
ag156
ag156
ag156
ag156
ag156
ag156
ag156
ag156
ag156
ag156
ag156
ag156
ag156
ag156
ag156
ag156
ag156
ag156
ag156
ag156
ag156
ag156
ag156
ag156
ag156
ag156
ag156
ag156
ag156
ag156
ag156
ag156
ag156
ag156
ag156
ag156
ag156
ag156
ag156
ag156
ag156
ag156
ag156
ag156
ag156
ag156
ag156
ag156
ag156
ag156
ag156
ag156
ag156
ag156
ag156
ag156
ag156
ag156
ag156
ag156
ag156
ag156
ag156
ag156
ag156
ag156
ag156
ag156
ag156
ag156
ag156
ag156
ag156
ag156
ag156
ag156
ag156
ag156
ag156
ag156
ag156
ag156
ag156
ag156
ag156
ag156
ag156
ag156
ag156
ag156
ag156
ag156
ag156
ag156
ag156
ag156
ag7
(g11
S'\x00\x00\x88\xf5\x04\xac"@'
p157
tp158
Rp159
ag159
ag159
ag159
ag159
ag159
ag159
ag159
ag159
ag159
ag159
ag159
ag159
ag159
ag159
ag159
ag159
ag159
ag159
ag159
ag159
ag159
ag159
ag159
ag159
ag159
ag159
ag159
ag159
ag159
ag159
ag159
ag159
ag159
ag159
ag159
ag159
ag159
ag159
ag159
ag159
ag159
ag159
ag159
ag159
ag159
ag159
ag159
ag159
ag159
ag159
ag159
ag159
ag159
ag159
ag159
ag159
ag159
ag159
ag159
ag159
ag159
ag159
ag159
ag159
ag159
ag159
ag159
ag159
ag159
ag159
ag159
ag159
ag159
ag159
ag159
ag159
ag159
ag159
ag159
ag159
ag159
ag159
ag159
ag159
ag159
ag159
ag159
ag159
ag159
ag159
ag159
ag159
ag159
ag159
ag159
ag159
ag159
ag159
ag159
ag159
ag159
ag159
ag159
ag159
ag159
ag159
ag159
ag159
ag159
ag159
ag159
ag159
ag159
ag159
ag159
ag159
ag159
ag159
ag159
ag159
ag159
ag159
ag159
ag159
ag159
ag159
ag159
ag159
ag159
ag159
ag159
ag159
ag159
ag159
ag159
ag159
ag159
ag159
ag159
ag159
ag159
ag159
ag159
ag159
ag159
ag159
ag159
ag159
ag159
ag159
ag159
ag159
ag159
ag159
ag159
ag159
ag159
ag159
ag159
ag159
ag159
ag159
ag159
ag159
ag159
ag159
ag159
ag159
ag159
ag159
ag159
ag159
ag159
ag159
ag159
ag159
ag159
ag159
ag159
ag159
ag159
ag159
ag159
ag159
ag159
ag159
ag159
ag159
ag159
ag159
ag159
ag159
ag159
ag159
ag159
ag159
ag159
ag159
ag159
ag159
ag159
ag159
ag159
ag159
ag159
ag159
ag159
ag159
ag159
ag159
ag159
ag159
ag159
ag159
ag159
ag159
ag159
ag159
ag159
ag159
ag159
ag159
ag159
ag159
ag159
ag159
ag159
ag159
ag159
ag159
ag159
ag159
ag159
ag159
ag159
ag159
ag159
ag159
ag159
ag159
ag159
ag159
ag159
ag159
ag159
ag159
ag159
ag159
ag159
ag159
ag159
ag159
ag159
ag159
ag159
ag159
ag159
ag159
ag159
ag159
ag159
ag159
ag159
ag159
ag159
ag159
ag159
ag159
ag159
ag159
ag159
ag159
ag159
ag159
ag159
ag159
ag159
ag159
ag159
ag159
ag159
ag159
ag159
ag159
ag159
ag159
ag159
ag159
ag159
ag159
ag159
ag159
ag159
ag159
ag159
ag159
ag159
ag159
ag159
ag159
ag159
ag159
ag159
ag159
ag159
ag159
ag159
ag159
ag159
ag159
ag159
ag159
ag159
ag159
ag159
ag159
ag159
ag159
ag159
ag159
ag159
ag159
ag159
ag159
ag159
ag159
ag159
ag159
ag159
ag159
ag159
ag159
ag159
ag159
ag159
ag159
ag159
ag159
ag159
ag159
ag159
ag159
ag159
ag159
ag159
ag159
ag159
ag159
ag159
ag159
ag159
ag159
ag159
ag159
ag159
ag159
ag159
ag159
ag159
ag159
ag159
ag159
ag159
ag159
ag159
ag159
ag159
ag159
ag159
ag159
ag159
ag159
ag159
ag159
ag159
ag159
ag159
ag159
ag159
ag159
ag159
ag159
ag159
ag159
ag159
ag159
ag159
ag159
ag159
ag159
ag159
ag159
ag159
ag159
ag159
ag159
ag159
ag159
ag159
ag159
ag159
ag159
ag159
ag159
ag159
ag159
ag159
ag159
ag159
ag159
ag159
ag159
ag159
ag159
ag159
ag159
ag159
ag159
ag159
ag159
ag159
ag159
ag159
ag159
ag159
ag159
ag159
ag159
ag159
ag159
ag159
ag159
ag159
ag159
ag159
ag159
ag159
ag159
ag159
ag159
ag159
ag159
ag159
ag159
ag159
ag159
ag159
ag159
ag159
ag159
ag159
ag159
ag159
ag159
ag159
ag159
ag159
ag159
ag159
ag159
ag159
ag159
ag159
ag159
ag159
ag159
ag159
ag159
ag159
ag159
ag159
ag159
ag159
ag159
ag159
ag159
ag159
ag159
ag159
ag159
ag159
ag159
ag159
ag159
ag159
ag159
ag159
ag159
ag159
ag159
ag159
ag159
ag159
ag159
ag159
ag159
ag159
ag159
ag159
ag159
ag159
ag159
ag159
ag159
ag159
ag159
ag159
ag159
ag159
ag159
ag159
ag159
ag159
ag159
ag159
ag159
ag159
ag159
ag159
ag159
ag159
ag159
ag159
ag159
ag159
ag159
ag159
ag159
ag159
ag159
ag159
ag159
ag159
ag159
ag159
ag159
ag159
ag159
ag159
ag159
ag159
ag159
ag159
ag159
ag159
ag159
ag159
ag159
ag159
ag159
ag159
ag159
ag159
ag159
ag159
ag159
ag159
ag159
ag159
ag159
ag159
ag159
ag159
ag159
ag159
ag159
ag159
ag159
ag159
ag159
ag159
ag159
ag159
ag159
ag159
ag159
ag159
ag159
ag159
ag159
ag159
ag159
ag159
ag159
ag159
ag159
ag159
ag159
ag159
ag159
ag159
ag159
ag159
ag159
ag159
ag159
ag159
ag159
ag159
ag159
ag159
ag159
ag159
ag159
ag159
ag159
ag159
ag159
ag159
ag159
ag159
ag159
ag159
ag159
ag159
ag159
ag159
ag159
ag159
ag159
ag159
ag159
ag159
ag159
ag159
ag159
ag159
ag159
ag159
ag159
ag159
ag159
ag159
ag159
ag159
ag159
ag159
ag159
ag159
ag159
ag159
ag159
ag159
ag159
ag159
ag159
ag159
ag159
ag159
ag159
ag159
ag159
ag159
ag159
ag159
ag159
ag159
ag159
ag159
ag159
ag159
ag159
ag159
ag159
ag159
ag159
ag159
ag159
ag159
ag159
ag159
ag159
ag159
ag159
ag159
ag159
ag159
ag159
ag159
ag159
ag159
ag159
ag159
ag159
ag159
ag159
ag159
ag159
ag159
ag159
ag159
ag159
ag159
ag159
ag159
ag159
ag159
ag159
ag159
ag159
ag159
ag159
ag159
ag159
ag159
ag159
ag159
ag159
ag159
ag159
ag159
ag159
ag159
ag159
ag159
ag159
ag159
ag159
ag159
ag159
ag159
ag159
ag159
ag159
ag159
ag159
ag159
ag159
ag159
ag159
ag159
ag159
ag159
ag159
ag159
ag159
ag159
ag159
ag159
ag159
ag159
ag159
ag159
ag159
ag159
ag159
ag159
ag159
ag159
ag159
ag159
ag159
ag159
ag159
ag159
ag159
ag159
ag159
ag159
ag159
ag159
ag159
ag159
ag159
ag159
ag159
ag159
ag159
ag159
ag159
ag159
ag159
ag159
ag159
ag159
ag159
ag159
ag159
ag159
ag159
ag159
ag159
ag159
ag159
ag159
ag159
ag159
ag159
ag159
ag159
ag159
ag159
ag159
ag159
ag159
ag159
ag159
ag159
ag159
ag159
ag159
ag159
ag159
ag159
ag159
ag159
ag159
ag159
ag159
ag159
ag159
ag159
ag159
ag159
ag159
ag159
ag159
ag159
ag159
ag159
ag159
ag159
ag159
ag159
ag159
ag159
ag159
ag159
ag159
ag159
ag159
ag159
ag159
ag159
ag159
ag159
ag159
ag159
ag159
ag159
ag159
ag159
ag159
ag159
ag159
ag159
ag159
ag159
ag159
ag159
ag159
ag159
ag159
ag159
ag159
ag159
ag159
ag159
ag159
ag159
ag159
ag159
ag159
ag159
ag159
ag159
ag159
ag159
ag159
ag159
ag159
ag159
ag159
ag159
ag159
ag159
ag159
ag159
ag159
ag159
ag159
ag159
ag159
ag159
ag159
ag159
ag159
ag159
ag159
ag159
ag159
ag159
ag159
ag159
ag159
ag159
ag159
ag159
ag159
ag159
ag159
ag159
ag159
ag159
ag159
ag159
ag159
ag159
ag159
ag159
ag159
ag159
ag159
ag159
ag159
ag159
ag159
ag159
ag159
ag159
ag159
ag159
ag159
ag159
ag159
ag159
ag159
ag159
ag159
ag7
(g11
S'\x00\x008\xd0\xbd\xac"@'
p160
tp161
Rp162
ag162
ag162
ag162
ag162
ag162
ag162
ag162
ag162
ag162
ag162
ag162
ag162
ag162
ag162
ag162
ag162
ag162
ag162
ag162
ag162
ag162
ag162
ag162
ag162
ag162
ag162
ag162
ag162
ag162
ag162
ag162
ag162
ag162
ag162
ag162
ag162
ag162
ag162
ag162
ag162
ag162
ag162
ag162
ag162
ag162
ag162
ag162
ag162
ag162
ag162
ag162
ag162
ag162
ag162
ag162
ag162
ag162
ag162
ag162
ag162
ag162
ag162
ag162
ag162
ag162
ag162
ag162
ag162
ag162
ag162
ag162
ag162
ag162
ag162
ag162
ag162
ag162
ag162
ag162
ag162
ag162
ag162
ag162
ag162
ag162
ag162
ag162
ag162
ag162
ag162
ag162
ag162
ag162
ag162
ag162
ag162
ag162
ag162
ag162
ag162
ag162
ag162
ag162
ag162
ag162
ag162
ag162
ag162
ag162
ag162
ag162
ag162
ag162
ag162
ag162
ag162
ag162
ag162
ag162
ag162
ag162
ag162
ag162
ag162
ag162
ag162
ag162
ag162
ag162
ag162
ag162
ag162
ag162
ag162
ag162
ag162
ag162
ag162
ag162
ag162
ag162
ag162
ag162
ag162
ag162
ag162
ag162
ag162
ag162
ag162
ag162
ag162
ag162
ag162
ag162
ag162
ag162
ag162
ag162
ag162
ag162
ag162
ag162
ag162
ag162
ag162
ag162
ag162
ag162
ag162
ag162
ag162
ag162
ag162
ag162
ag162
ag162
ag162
ag162
ag162
ag162
ag162
ag162
ag162
ag162
ag162
ag162
ag162
ag162
ag162
ag162
ag162
ag162
ag162
ag162
ag162
ag162
ag162
ag162
ag162
ag162
ag162
ag162
ag162
ag162
ag162
ag162
ag162
ag162
ag162
ag162
ag162
ag162
ag162
ag162
ag162
ag162
ag162
ag162
ag162
ag162
ag162
ag162
ag162
ag162
ag162
ag162
ag162
ag162
ag162
ag162
ag162
ag162
ag162
ag162
ag162
ag162
ag162
ag162
ag162
ag162
ag162
ag162
ag162
ag162
ag162
ag162
ag162
ag162
ag162
ag162
ag162
ag162
ag162
ag162
ag162
ag162
ag162
ag162
ag162
ag162
ag162
ag162
ag162
ag162
ag162
ag162
ag162
ag162
ag162
ag162
ag162
ag162
ag162
ag162
ag162
ag162
ag162
ag162
ag162
ag162
ag162
ag162
ag162
ag162
ag162
ag162
ag162
ag162
ag162
ag162
ag162
ag162
ag162
ag162
ag162
ag162
ag162
ag162
ag162
ag162
ag162
ag162
ag162
ag162
ag162
ag162
ag162
ag162
ag162
ag162
ag162
ag162
ag162
ag162
ag162
ag162
ag162
ag162
ag162
ag162
ag162
ag162
ag162
ag162
ag162
ag162
ag162
ag162
ag162
ag162
ag162
ag162
ag162
ag162
ag162
ag162
ag162
ag162
ag162
ag162
ag162
ag162
ag162
ag162
ag162
ag162
ag162
ag162
ag162
ag162
ag162
ag162
ag162
ag162
ag162
ag162
ag162
ag162
ag162
ag162
ag162
ag162
ag162
ag162
ag162
ag162
ag162
ag162
ag162
ag162
ag162
ag162
ag162
ag162
ag162
ag162
ag162
ag162
ag162
ag162
ag162
ag162
ag162
ag162
ag162
ag162
ag162
ag162
ag162
ag162
ag162
ag162
ag162
ag162
ag162
ag162
ag162
ag162
ag162
ag162
ag162
ag162
ag162
ag162
ag162
ag162
ag162
ag162
ag162
ag162
ag162
ag162
ag162
ag162
ag162
ag162
ag162
ag162
ag162
ag162
ag162
ag162
ag162
ag162
ag162
ag162
ag162
ag162
ag162
ag162
ag162
ag162
ag162
ag162
ag162
ag162
ag162
ag162
ag162
ag162
ag162
ag162
ag162
ag162
ag162
ag162
ag162
ag162
ag162
ag162
ag162
ag162
ag162
ag162
ag162
ag162
ag162
ag162
ag162
ag162
ag162
ag162
ag162
ag162
ag162
ag162
ag162
ag162
ag162
ag162
ag162
ag162
ag162
ag162
ag162
ag162
ag162
ag162
ag162
ag162
ag162
ag162
ag162
ag162
ag162
ag162
ag162
ag162
ag162
ag162
ag162
ag162
ag162
ag162
ag162
ag162
ag162
ag162
ag162
ag162
ag162
ag162
ag162
ag162
ag162
ag162
ag162
ag162
ag162
ag162
ag162
ag162
ag162
ag162
ag162
ag162
ag162
ag162
ag162
ag162
ag162
ag162
ag162
ag162
ag162
ag162
ag162
ag162
ag162
ag162
ag162
ag162
ag162
ag162
ag162
ag162
ag162
ag162
ag162
ag162
ag162
ag162
ag162
ag162
ag162
ag162
ag162
ag162
ag162
ag162
ag162
ag162
ag162
ag162
ag162
ag162
ag162
ag162
ag162
ag162
ag162
ag162
ag162
ag162
ag162
ag162
ag162
ag162
ag162
ag162
ag162
ag162
ag162
ag162
ag162
ag162
ag162
ag162
ag162
ag162
ag162
ag162
ag162
ag162
ag162
ag162
ag162
ag162
ag162
ag162
ag162
ag162
ag162
ag162
ag162
ag162
ag162
ag162
ag162
ag162
ag162
ag162
ag162
ag162
ag162
ag162
ag162
ag162
ag162
ag162
ag162
ag162
ag162
ag162
ag162
ag162
ag162
ag162
ag162
ag162
ag162
ag162
ag162
ag162
ag162
ag162
ag162
ag162
ag162
ag162
ag162
ag162
ag162
ag162
ag162
ag162
ag162
ag162
ag162
ag162
ag162
ag162
ag162
ag162
ag162
ag162
ag162
ag162
ag162
ag162
ag162
ag162
ag162
ag162
ag162
ag162
ag162
ag162
ag162
ag162
ag162
ag162
ag162
ag162
ag162
ag162
ag162
ag162
ag162
ag162
ag162
ag162
ag162
ag162
ag162
ag162
ag162
ag162
ag162
ag162
ag162
ag162
ag162
ag162
ag162
ag162
ag162
ag162
ag162
ag162
ag162
ag162
ag162
ag162
ag162
ag162
ag162
ag162
ag162
ag162
ag162
ag162
ag162
ag162
ag162
ag162
ag162
ag162
ag162
ag162
ag162
ag162
ag162
ag162
ag162
ag162
ag162
ag162
ag162
ag162
ag162
ag162
ag162
ag162
ag162
ag162
ag162
ag162
ag162
ag162
ag162
ag162
ag162
ag162
ag162
ag162
ag162
ag162
ag162
ag162
ag162
ag162
ag162
ag162
ag162
ag162
ag162
ag162
ag162
ag162
ag162
ag162
ag162
ag162
ag162
ag162
ag162
ag162
ag162
ag162
ag162
ag162
ag162
ag162
ag162
ag162
ag162
ag162
ag162
ag162
ag162
ag162
ag162
ag162
ag162
ag162
ag162
ag162
ag162
ag162
ag162
ag162
ag162
ag162
ag162
ag162
ag162
ag162
ag162
ag162
ag162
ag162
ag162
ag162
ag162
ag162
ag162
ag162
ag162
ag162
ag162
ag162
ag162
ag162
ag162
ag162
ag162
ag162
ag162
ag162
ag162
ag162
ag162
ag162
ag162
ag162
ag162
ag162
ag162
ag162
ag162
ag162
ag162
ag162
ag162
ag162
ag162
ag162
ag162
ag162
ag162
ag162
ag162
ag162
ag162
ag162
ag162
ag162
ag162
ag162
ag162
ag162
ag162
ag162
ag162
ag162
ag162
ag162
ag162
ag162
ag162
ag162
ag162
ag162
ag162
ag162
ag162
ag162
ag162
ag162
ag162
ag162
ag162
ag162
ag162
ag162
ag162
ag162
ag162
ag162
ag162
ag162
ag162
ag162
ag162
ag162
ag162
ag162
ag162
ag162
ag162
ag162
ag162
ag162
ag162
ag162
ag162
ag162
ag162
ag162
ag162
ag162
ag162
ag162
ag162
ag162
ag162
ag162
ag162
ag162
ag162
ag162
ag162
ag162
ag162
ag162
ag162
ag162
ag162
ag162
ag162
ag162
ag162
ag162
ag162
ag162
ag162
ag162
ag162
ag162
ag162
ag162
ag162
ag162
ag162
ag162
ag162
ag162
ag162
ag162
ag162
ag162
ag162
ag162
ag162
ag162
ag162
ag162
ag162
ag162
ag162
ag162
ag162
ag162
ag162
ag162
ag162
ag162
ag162
ag162
ag162
ag162
ag162
ag162
ag162
ag162
ag162
ag162
ag162
ag162
ag162
ag162
ag162
ag162
ag162
ag162
ag162
ag162
ag162
ag162
ag162
ag162
ag162
ag162
ag162
ag162
ag162
ag162
ag162
ag162
ag162
ag162
ag162
ag162
ag162
ag162
ag162
ag162
ag162
ag162
ag162
ag162
ag162
ag162
ag162
ag162
ag162
ag162
ag162
ag162
ag162
ag162
ag162
ag162
ag162
ag162
ag162
ag162
ag162
ag162
ag162
ag162
ag162
ag162
ag162
ag162
ag162
ag162
ag162
ag162
ag162
ag162
ag162
ag162
ag162
ag162
ag162
ag162
ag162
ag162
ag162
ag162
ag162
ag162
ag162
ag162
ag162
ag162
ag162
ag162
ag162
ag162
ag162
ag162
ag162
ag162
ag162
ag162
ag162
ag162
ag162
ag162
ag162
ag162
ag162
ag162
ag162
ag162
ag162
ag162
ag162
ag162
ag162
ag162
ag162
ag162
ag162
ag162
ag162
ag162
ag162
ag162
ag162
ag162
ag162
ag162
ag162
ag162
ag162
ag162
ag162
ag162
ag162
ag162
ag162
ag162
ag162
ag162
ag162
ag162
ag162
ag162
ag162
ag162
ag162
ag162
ag162
ag162
ag162
ag162
ag162
ag162
ag162
ag162
ag162
ag162
ag162
ag162
ag162
ag162
ag162
ag162
ag162
ag162
ag162
ag162
ag162
ag162
ag162
ag162
ag162
ag162
ag162
ag162
ag162
ag162
ag162
ag162
ag162
ag162
ag162
ag162
ag162
ag162
ag162
ag162
ag162
ag162
ag162
ag162
ag162
ag162
ag162
ag162
ag162
ag162
ag162
ag162
ag162
ag162
ag162
ag162
ag162
ag162
ag162
ag162
ag162
ag162
ag162
ag162
ag162
ag162
ag162
ag162
ag162
ag162
ag162
ag162
ag162
ag162
ag162
ag162
ag162
ag162
ag162
ag162
ag162
ag162
ag162
ag162
ag162
ag162
ag162
ag162
ag162
ag162
ag162
ag162
ag162
ag162
ag162
ag162
ag162
ag162
ag162
ag162
ag162
ag162
ag162
ag162
ag162
ag162
ag162
ag162
ag162
ag162
ag162
ag162
ag162
ag162
ag162
ag162
ag162
ag162
ag162
ag162
ag162
ag162
ag162
ag162
ag162
ag162
ag162
ag162
ag162
ag162
ag162
ag162
ag162
ag162
ag162
ag162
ag162
ag162
ag162
ag162
ag162
ag162
ag162
ag162
ag162
ag162
ag162
ag162
ag162
ag162
ag162
ag162
ag162
ag162
ag162
ag162
ag162
ag162
ag162
ag162
ag162
ag162
ag162
ag162
ag162
ag162
ag162
ag162
ag162
ag162
ag162
ag162
ag162
ag162
ag162
ag162
ag162
ag162
ag162
ag162
ag162
ag162
ag162
ag162
ag162
ag162
ag162
ag162
ag162
ag162
ag162
ag162
ag162
ag162
ag162
ag162
ag162
ag162
ag162
ag162
ag162
ag162
ag162
ag162
ag162
ag162
ag162
ag162
ag162
ag162
ag162
ag162
ag162
ag162
ag162
ag162
ag162
ag162
ag162
ag162
ag162
ag162
ag162
ag162
ag162
ag162
ag162
ag162
ag162
ag162
ag162
ag162
ag162
ag162
ag162
ag162
ag162
ag162
ag162
ag162
ag162
ag162
ag162
ag162
ag162
ag162
ag162
ag162
ag162
ag162
ag162
ag162
ag162
ag162
ag162
ag162
ag162
ag162
ag162
ag162
ag162
ag162
ag162
ag162
ag162
ag162
ag162
ag162
ag162
ag162
ag162
ag162
ag162
ag162
ag162
ag162
ag162
ag162
ag162
ag162
ag162
ag162
ag162
ag162
ag162
ag162
ag162
ag162
ag162
ag162
ag162
ag162
ag162
ag162
ag162
ag162
ag162
ag162
ag162
ag162
ag162
ag162
ag162
ag162
ag162
ag162
ag162
ag162
ag162
ag162
ag162
ag162
ag162
ag162
ag162
ag162
ag162
ag162
ag162
ag162
ag162
ag162
ag162
ag162
ag162
ag162
ag162
ag162
ag162
ag162
ag162
ag162
ag162
ag162
ag162
ag162
ag162
ag162
ag162
ag162
ag162
ag162
ag162
ag162
ag162
ag162
ag162
ag162
ag162
ag162
ag162
ag162
ag162
ag162
ag162
ag162
ag162
ag162
ag162
ag162
ag162
ag162
ag162
ag162
ag162
ag162
ag162
ag162
ag162
ag162
ag162
ag162
ag162
ag162
ag162
ag162
ag162
ag162
ag162
ag162
ag162
ag162
ag162
ag162
ag162
ag162
ag162
ag162
ag162
ag162
ag162
ag162
ag162
ag162
ag162
ag162
ag162
ag162
ag162
ag162
ag162
ag162
ag162
ag162
ag162
ag162
ag162
ag162
ag162
ag162
ag162
ag162
ag162
ag162
ag162
ag162
ag162
ag162
ag162
ag162
ag162
ag162
ag162
ag162
ag162
ag162
ag162
ag162
ag162
ag162
ag162
ag162
ag162
ag162
ag162
ag162
ag162
ag162
ag162
ag162
ag162
ag162
ag162
ag162
ag162
ag162
ag162
ag162
ag162
ag162
ag162
ag162
ag162
ag162
ag162
ag162
ag162
ag162
ag162
ag162
ag162
ag162
ag162
ag162
ag162
ag162
ag162
ag162
ag162
ag162
ag162
ag162
ag162
ag162
ag162
ag162
ag162
ag162
ag162
ag162
ag162
ag162
ag162
ag162
ag162
ag162
ag162
ag162
ag162
ag162
ag162
ag162
ag162
ag162
ag162
ag162
ag162
ag162
ag162
ag162
ag162
ag162
ag162
ag162
ag162
ag162
ag162
ag162
ag162
ag162
ag162
ag162
ag162
ag162
ag162
ag162
ag162
ag162
ag162
ag162
ag162
ag162
ag162
ag162
ag162
ag162
ag162
ag162
ag162
ag162
ag162
ag162
ag162
ag162
ag162
ag162
ag162
ag162
ag162
ag162
ag162
ag162
ag162
ag162
ag162
ag162
ag162
ag162
ag162
ag162
ag162
ag162
ag162
ag162
ag162
ag162
ag162
ag162
ag162
ag162
ag162
ag162
ag162
ag162
ag162
ag162
ag162
ag162
ag162
ag162
ag162
ag162
ag162
ag162
ag162
ag162
ag162
ag162
ag162
ag162
ag162
ag162
ag162
ag162
ag162
ag162
ag162
ag162
ag162
ag162
ag162
ag162
ag162
ag162
ag162
ag162
ag162
ag162
ag162
ag162
ag162
ag162
ag162
ag162
ag162
ag162
ag162
ag162
ag162
ag162
ag162
ag162
ag162
ag162
ag162
ag162
ag162
ag162
ag162
ag162
ag162
ag162
ag162
ag162
ag162
ag162
ag162
ag162
ag162
ag162
ag162
ag162
ag162
ag162
ag162
ag162
ag162
ag162
ag162
ag162
ag162
ag162
ag162
ag162
ag162
ag162
ag162
ag162
ag162
ag162
ag162
ag162
ag162
ag162
ag162
ag162
ag162
ag162
ag162
ag162
ag162
ag162
ag162
ag162
ag162
ag162
ag162
ag162
ag162
ag162
ag162
ag162
ag162
ag162
ag162
ag162
ag162
ag162
ag162
ag162
ag162
ag162
ag162
ag162
ag162
ag162
ag162
ag162
ag162
ag162
ag162
ag162
ag162
ag162
ag162
ag162
ag162
ag162
ag162
ag162
ag162
ag162
ag162
ag162
ag162
ag162
ag162
ag162
ag162
ag162
ag162
ag162
ag162
ag162
ag162
ag162
ag162
ag162
ag162
ag162
ag162
ag162
ag162
ag162
ag162
ag162
ag162
ag162
ag162
ag162
ag162
ag162
ag162
ag162
ag162
ag162
ag162
ag162
ag162
ag162
ag162
ag162
ag162
ag162
ag162
ag162
ag162
ag162
ag162
ag162
ag162
ag162
ag162
ag162
ag162
ag162
ag162
ag162
ag162
ag162
ag162
ag162
ag162
ag162
ag162
ag162
ag162
ag162
ag162
ag162
ag162
ag162
ag162
ag162
ag162
ag162
ag162
ag162
ag162
ag162
ag162
ag162
ag162
ag162
ag162
ag162
ag162
ag162
ag162
ag162
ag162
ag162
ag162
ag162
ag162
ag162
ag162
ag162
ag162
ag162
ag162
ag162
ag162
ag162
ag162
ag162
ag162
ag162
ag162
ag162
ag162
ag162
ag162
ag162
ag162
ag162
ag162
ag162
ag162
ag162
ag162
ag162
ag162
ag162
ag162
ag162
ag162
ag162
ag162
ag162
ag162
ag162
ag162
ag162
ag162
ag162
ag162
ag162
ag162
ag162
ag162
ag162
ag162
ag162
ag162
ag162
ag162
ag162
ag162
ag162
ag162
ag162
ag162
ag162
ag162
ag162
ag162
ag162
ag162
ag162
ag162
ag162
ag162
ag162
ag162
ag162
ag162
ag162
ag162
ag162
ag162
ag162
ag162
ag162
ag162
ag162
ag162
ag162
ag162
ag162
ag162
ag162
ag162
ag162
ag162
ag162
ag162
ag162
ag162
ag162
ag162
ag162
ag162
ag162
ag162
ag162
ag162
ag162
ag162
ag162
ag162
ag162
ag162
ag162
ag162
ag162
ag162
ag162
ag162
ag162
ag162
ag162
ag162
ag162
ag162
ag162
ag162
ag162
ag162
ag162
ag162
ag162
ag162
ag162
ag162
ag162
ag162
ag162
ag162
ag162
ag162
ag162
ag162
ag162
ag162
ag162
ag162
ag162
ag162
ag162
ag162
ag162
ag162
ag162
ag162
ag162
ag162
ag162
ag162
ag162
ag162
ag162
ag162
ag162
ag162
ag162
ag162
ag162
ag162
ag162
ag162
ag162
ag162
ag162
ag162
ag162
ag162
ag162
ag162
ag162
ag162
ag162
ag162
ag162
ag162
ag162
ag162
ag162
ag162
ag162
ag162
ag162
ag162
ag162
ag162
ag162
ag162
ag162
ag162
ag162
ag162
ag162
ag162
ag162
ag162
ag162
ag162
ag162
ag162
ag162
ag162
ag162
ag162
ag162
ag162
ag162
ag162
ag162
ag162
ag162
ag162
ag162
ag162
ag162
ag162
ag162
ag162
ag162
ag162
ag162
ag162
ag162
ag162
ag162
ag162
ag162
ag162
ag162
ag162
ag162
ag162
ag162
ag162
ag162
ag162
ag162
ag162
ag162
ag162
ag162
ag162
ag162
ag162
ag162
ag162
ag162
ag162
ag162
ag162
ag162
ag162
ag162
ag162
ag162
ag162
ag162
ag162
ag162
ag162
ag162
ag162
ag162
ag162
ag162
ag162
ag162
ag162
ag162
ag162
ag162
ag162
ag162
ag162
ag162
ag162
ag162
ag162
ag162
ag162
ag162
ag162
ag162
ag162
ag162
ag162
ag162
ag162
ag162
ag162
ag162
ag162
ag162
ag162
ag162
ag162
ag162
ag162
ag162
ag162
ag162
ag162
ag162
ag162
ag162
ag162
ag162
ag162
ag162
ag162
ag162
ag162
ag162
ag162
ag162
ag162
ag162
ag162
ag162
ag162
ag162
ag162
ag162
ag162
ag162
ag162
ag162
ag162
ag162
ag162
ag162
ag162
ag162
ag162
ag162
ag162
ag162
ag162
ag162
ag162
ag162
ag162
ag162
ag162
ag162
ag162
ag162
ag162
ag162
ag162
ag162
ag162
ag162
ag162
ag162
ag162
ag162
ag162
ag162
ag162
ag162
ag162
ag162
ag162
ag162
ag162
ag162
ag162
ag162
ag162
ag162
ag162
ag162
ag162
ag162
ag162
ag162
ag162
ag162
ag162
ag162
ag162
ag162
ag162
ag162
ag162
ag162
ag162
ag162
ag162
ag162
ag162
ag162
ag162
ag162
ag162
ag162
ag162
ag162
ag162
ag162
ag162
ag162
ag162
ag162
ag162
ag162
ag162
ag162
ag162
ag162
ag162
ag162
ag162
ag162
ag162
ag162
ag162
ag162
ag162
ag162
ag162
ag162
ag162
ag162
ag162
ag162
ag162
ag162
ag162
ag162
ag162
ag162
ag162
ag162
ag162
ag162
ag162
ag162
ag162
ag162
ag162
ag162
ag162
ag162
ag162
ag162
ag162
ag162
ag162
ag162
ag162
ag162
ag162
ag162
ag162
ag162
ag162
ag162
ag162
ag162
ag162
ag162
ag162
ag162
ag162
ag162
ag162
ag162
ag162
ag162
ag162
ag162
ag162
ag162
ag162
ag162
ag162
ag162
ag162
ag162
ag162
ag162
ag162
ag162
ag162
ag162
ag162
ag162
ag162
ag162
ag162
ag162
ag162
ag162
ag162
ag162
ag162
ag162
ag162
ag162
ag162
ag162
ag162
ag162
ag162
ag162
ag162
ag162
ag162
ag162
ag162
ag162
ag162
ag162
ag162
ag162
ag162
ag162
ag162
ag162
ag162
ag162
ag162
ag162
ag162
ag162
ag162
ag162
ag162
ag162
ag162
ag162
ag162
ag162
ag162
ag162
ag162
ag162
ag162
ag162
ag162
ag162
ag162
ag162
ag162
ag162
ag162
ag162
ag162
ag162
ag162
ag162
ag162
ag162
ag162
ag162
ag162
ag162
ag162
ag162
ag162
ag162
ag162
ag162
ag162
ag162
ag162
ag162
ag162
ag162
ag162
ag162
ag162
ag162
ag162
ag162
ag162
ag162
ag162
ag162
ag162
ag162
ag162
ag162
ag162
ag162
ag162
ag162
ag162
ag162
ag162
ag162
ag162
ag162
ag162
ag162
ag162
ag162
ag162
ag162
ag162
ag162
ag162
ag162
ag162
ag162
ag162
ag162
ag162
ag162
ag162
ag162
ag162
ag162
ag162
ag162
ag162
ag162
ag162
ag162
ag162
ag162
ag162
ag162
ag162
ag162
ag162
ag162
ag162
ag162
ag162
ag162
ag162
ag162
ag162
ag162
ag162
ag162
ag162
ag162
ag162
ag162
ag162
ag162
ag162
ag162
ag162
ag162
ag162
ag162
ag162
ag162
ag162
ag162
ag162
ag162
ag162
ag162
ag162
ag162
ag162
ag162
ag162
ag162
ag162
ag162
ag162
ag162
ag162
ag162
ag162
ag162
ag162
ag162
ag162
ag162
ag162
ag162
ag162
ag162
ag162
ag162
ag162
ag162
ag162
ag162
ag162
ag162
ag162
ag162
ag162
ag162
ag162
ag162
ag162
ag162
ag162
ag162
ag162
ag162
ag162
ag162
ag162
ag162
ag162
ag162
ag162
ag162
ag162
ag162
ag162
ag162
ag162
ag162
ag162
ag162
ag162
ag162
ag162
ag162
ag162
ag162
ag162
ag162
ag162
ag162
ag162
ag162
ag162
ag162
ag162
ag162
ag162
ag162
ag162
ag162
ag162
ag162
ag162
ag162
ag162
ag162
ag162
ag162
ag162
ag162
ag162
ag162
ag162
ag162
ag162
ag162
ag162
ag162
ag162
ag162
ag162
ag162
ag162
ag162
ag162
ag162
ag162
ag162
ag162
ag162
ag162
ag162
ag162
ag162
ag162
ag162
ag162
ag162
ag162
ag162
ag162
ag162
ag162
ag162
ag162
ag162
ag162
ag162
ag162
ag162
ag162
ag162
ag162
ag162
ag162
ag162
ag162
ag162
ag162
ag162
ag162
ag162
ag162
ag162
ag162
ag162
ag162
ag162
ag162
ag162
ag162
ag162
ag162
ag162
ag162
ag162
ag162
ag162
ag162
ag162
ag162
ag162
ag162
ag162
ag162
ag162
ag162
ag162
ag162
ag162
ag162
ag162
ag162
ag162
ag162
ag162
ag162
ag162
ag162
ag162
ag162
ag162
ag162
ag162
ag162
ag162
ag162
ag162
ag162
ag162
ag162
ag162
ag162
ag162
ag162
ag162
ag162
ag162
ag162
ag162
ag162
ag162
ag162
ag162
ag162
ag162
ag162
ag162
ag162
ag162
ag162
ag162
ag162
ag162
ag162
ag162
ag162
ag162
ag162
ag162
ag162
ag162
ag162
ag162
ag162
ag162
ag162
ag162
ag162
ag162
ag162
ag162
ag162
ag162
ag162
ag162
ag162
ag162
ag162
ag162
ag162
ag162
ag162
ag162
ag162
ag162
ag162
ag162
ag162
ag162
ag162
ag162
ag162
ag162
ag162
ag162
ag162
ag162
ag162
ag162
ag162
ag162
ag162
ag162
ag162
ag162
ag162
ag162
ag162
ag162
ag162
ag162
ag162
ag162
ag162
ag162
ag162
ag162
ag162
ag162
ag162
ag162
ag162
ag162
ag162
ag162
ag162
ag162
ag162
ag162
ag162
ag162
ag162
ag162
ag162
ag162
ag162
ag162
ag162
ag162
ag162
ag162
ag162
ag162
ag162
ag162
ag162
ag162
ag162
ag162
ag162
ag162
ag162
ag162
ag162
ag162
ag162
ag162
ag162
ag162
ag162
ag162
ag162
ag162
ag162
ag162
ag162
ag162
ag162
ag162
ag162
ag162
ag162
ag162
ag162
ag162
ag162
ag162
ag162
ag162
ag162
ag162
ag162
ag162
ag162
ag162
ag162
ag162
ag162
ag162
ag162
ag162
ag162
ag162
ag162
ag162
ag162
ag162
ag162
ag162
ag162
ag162
ag162
ag162
ag162
ag162
ag162
ag162
ag162
ag162
ag162
ag162
ag162
ag162
ag162
ag162
ag162
ag162
ag162
ag162
ag162
ag162
ag162
ag162
ag162
ag162
ag162
ag162
ag162
ag162
ag162
ag162
ag162
ag162
ag162
ag162
ag162
ag162
ag162
ag162
ag162
ag162
ag162
ag162
ag162
ag162
ag162
ag162
ag162
ag162
ag162
ag162
ag162
ag162
ag162
ag162
ag162
ag162
ag162
ag162
ag162
ag162
ag162
ag162
ag162
ag162
ag162
ag162
ag162
ag162
ag162
ag162
ag162
ag162
ag162
ag162
ag162
ag162
ag162
ag162
ag162
ag162
ag162
ag162
ag162
ag162
ag162
ag162
ag162
ag162
ag162
ag162
ag162
ag162
ag162
ag162
ag162
ag162
ag162
ag162
ag162
ag162
ag162
ag162
ag162
ag162
ag162
ag162
ag162
ag162
ag162
ag162
ag162
ag162
ag162
ag162
ag162
ag162
ag162
ag162
ag162
ag162
ag162
ag162
ag162
ag162
ag162
ag162
ag162
ag162
ag162
ag162
ag162
ag162
ag162
ag162
ag162
ag162
ag162
ag162
ag162
ag162
ag162
ag162
ag162
ag162
ag162
ag162
ag162
ag162
ag162
ag162
ag162
ag162
ag162
ag162
ag162
ag162
ag162
ag162
ag162
ag162
ag162
ag162
ag162
ag162
ag162
ag162
ag162
ag162
ag162
ag162
ag162
ag162
ag162
ag162
ag162
ag162
ag162
ag162
ag162
ag162
ag162
ag162
ag162
ag162
ag162
ag162
ag162
ag162
ag162
ag162
ag162
ag162
ag162
ag162
ag162
ag162
ag162
ag162
ag162
ag162
ag162
ag162
ag162
ag162
ag162
ag162
ag162
ag162
ag162
ag162
ag162
ag162
ag162
ag162
ag162
ag162
ag162
ag162
ag162
ag162
ag162
ag162
ag162
ag162
ag162
ag162
ag162
ag162
ag162
ag162
ag162
ag162
ag162
ag162
ag162
ag162
ag162
ag162
ag162
ag162
ag162
ag162
ag162
ag162
ag162
ag162
ag162
ag162
ag162
ag162
ag162
ag162
ag162
ag162
ag162
ag162
ag162
ag162
ag162
ag162
ag162
ag162
ag162
ag162
ag162
ag162
ag162
ag162
ag162
ag162
ag162
ag162
ag162
ag162
ag162
ag162
ag162
ag162
ag162
ag162
ag162
ag162
ag162
ag162
ag162
ag162
ag162
ag162
ag162
ag162
ag162
ag162
ag162
ag162
ag162
ag162
ag162
ag162
ag162
ag162
ag162
ag162
ag162
ag162
ag162
ag162
ag162
ag162
ag162
ag162
ag162
ag162
ag162
ag162
ag162
ag162
ag162
ag162
ag162
ag162
ag162
ag162
ag162
ag162
ag162
ag162
ag162
ag162
ag162
ag162
ag162
ag162
ag162
ag162
ag162
ag162
ag162
ag162
ag162
ag162
ag162
ag162
ag162
ag162
ag162
ag162
ag162
ag162
ag162
ag162
ag162
ag162
ag162
ag162
ag162
ag162
ag162
ag162
ag162
ag162
ag162
ag162
ag162
ag162
ag162
ag162
ag162
ag162
ag162
ag162
ag162
ag162
ag162
ag162
ag162
ag162
ag162
ag162
ag162
ag162
ag162
ag162
ag162
ag162
ag162
ag162
ag162
ag162
ag162
ag162
ag162
ag162
ag162
ag162
ag162
ag162
ag162
ag162
ag162
ag162
ag162
ag162
ag162
ag162
ag162
ag162
ag162
ag162
ag162
ag162
ag162
ag162
ag162
ag162
ag162
ag162
ag162
ag162
ag162
ag162
ag162
ag162
ag162
ag162
ag162
ag162
ag162
ag162
ag162
ag162
ag162
ag162
ag162
ag162
ag162
ag162
ag162
ag162
ag162
ag162
ag162
ag162
ag162
ag162
ag162
ag162
ag162
ag162
ag162
ag162
ag162
ag162
ag162
ag162
ag162
ag162
ag162
ag162
ag162
ag162
ag162
ag162
ag162
ag162
ag162
ag162
ag162
ag162
ag162
ag162
ag162
ag162
ag162
ag162
ag162
ag162
ag162
ag162
ag162
ag162
ag162
ag162
ag162
ag162
ag162
ag162
ag162
ag162
ag162
ag162
ag162
ag162
ag162
ag162
ag162
ag162
ag162
ag162
ag162
ag162
ag162
ag162
ag162
ag162
ag162
ag162
ag162
ag162
ag162
ag162
ag162
ag162
ag162
ag162
ag162
ag162
ag162
ag162
ag162
ag162
ag162
ag162
ag162
ag162
ag162
ag162
ag162
ag162
ag162
ag162
ag162
ag162
ag162
ag162
ag162
ag162
ag162
ag162
ag162
ag162
ag162
ag162
ag162
ag162
ag162
ag162
ag162
ag162
ag162
ag162
ag162
ag162
ag162
ag162
ag162
ag162
ag162
ag162
ag162
ag162
ag162
ag162
ag162
ag162
ag162
ag162
ag162
ag162
ag162
ag162
ag162
ag162
ag162
ag162
ag162
ag162
ag162
ag162
ag162
ag162
ag162
ag162
ag162
ag162
ag162
ag162
ag162
ag162
ag162
ag162
ag162
ag162
ag162
ag162
ag162
ag162
ag162
ag162
ag162
ag162
ag162
ag162
ag162
ag162
ag162
ag162
ag162
ag162
ag162
ag162
ag162
ag162
ag162
ag162
ag162
ag162
ag162
ag162
ag162
ag162
ag162
ag162
ag162
ag162
ag162
ag162
ag162
ag162
ag162
ag162
ag162
ag162
ag162
ag162
ag162
ag162
ag162
ag162
ag162
ag162
ag162
ag162
ag162
ag162
ag162
ag162
ag162
ag162
ag162
ag162
ag162
ag162
ag162
ag162
ag162
ag162
ag162
ag162
ag162
ag162
ag162
ag162
ag162
ag162
ag162
ag162
ag162
ag162
ag162
ag162
ag162
ag162
ag162
ag162
ag162
ag162
ag162
ag162
ag162
ag162
ag162
ag162
ag162
ag162
ag162
ag162
ag162
ag162
ag162
ag162
ag162
ag162
ag162
ag162
ag162
ag162
ag162
ag162
ag162
ag162
ag162
ag162
ag162
ag162
ag162
ag162
ag162
ag162
ag162
ag162
ag162
ag162
ag162
ag162
ag162
ag162
ag162
ag162
ag162
ag162
ag162
ag162
ag162
ag162
ag162
ag162
ag162
ag162
ag162
ag162
ag162
ag162
ag162
ag162
ag162
ag162
ag162
ag162
ag162
ag162
ag162
ag162
ag162
ag162
ag162
ag162
ag162
ag162
ag162
ag162
ag162
ag162
ag162
ag162
ag162
ag162
ag162
ag162
ag162
ag162
ag162
ag162
ag162
ag162
ag162
ag162
ag162
ag162
ag162
ag162
ag162
ag162
ag162
ag162
ag162
ag162
ag162
ag162
ag162
ag162
ag162
ag162
ag162
ag162
ag162
ag162
ag162
ag162
ag162
ag162
ag162
ag162
ag162
ag162
ag162
ag162
ag162
ag162
ag162
ag162
ag162
ag162
ag162
ag162
ag162
ag162
ag162
ag162
ag162
ag162
ag162
ag162
ag162
ag162
ag162
ag162
ag162
ag162
ag162
ag162
ag162
ag162
ag162
ag162
ag162
ag162
ag162
ag162
ag162
ag162
ag162
ag162
ag162
ag162
ag162
ag162
ag162
ag162
ag162
ag162
ag162
ag162
ag162
ag162
ag162
ag162
ag162
ag162
ag162
ag162
ag162
ag162
ag162
ag162
ag162
ag162
ag162
ag162
ag162
ag162
ag162
ag162
ag162
ag162
ag162
ag162
ag162
ag162
ag162
ag162
ag162
ag162
ag162
ag162
ag162
ag162
ag162
ag162
ag162
ag162
ag162
ag162
ag162
ag162
ag162
ag162
ag162
ag162
ag162
ag162
ag162
ag162
ag162
ag162
ag162
ag162
ag162
ag162
ag162
ag162
ag162
ag162
ag162
ag162
ag162
ag162
ag162
ag162
ag162
ag162
ag162
ag162
ag162
ag162
ag162
ag162
ag162
ag162
ag162
ag162
ag162
ag162
ag162
ag162
ag162
ag162
ag162
ag162
ag162
ag162
ag162
ag162
ag162
ag162
ag162
ag162
ag162
ag162
ag162
ag162
ag162
ag162
ag162
ag162
ag162
ag162
ag162
ag162
ag162
ag162
ag162
ag162
ag162
ag162
ag162
ag162
ag162
ag162
ag162
ag162
ag162
ag162
ag162
ag162
ag162
ag162
ag162
ag162
ag162
ag162
ag162
ag162
ag162
ag162
ag162
ag162
ag162
ag162
ag162
ag162
ag162
ag162
ag162
ag162
ag162
ag162
ag162
ag162
ag162
ag162
ag162
ag162
ag162
ag162
ag162
ag162
ag162
ag162
ag162
ag162
ag162
ag162
ag162
ag162
ag162
ag162
ag162
ag162
ag162
ag162
ag162
ag162
ag162
ag162
ag162
ag162
ag162
ag162
ag162
ag162
ag162
ag162
ag162
ag162
ag162
ag162
ag162
ag162
ag162
ag162
ag162
ag162
ag162
ag162
ag162
ag162
ag162
ag162
ag162
ag162
ag162
ag162
ag162
ag162
ag162
ag162
ag162
ag162
ag162
ag162
ag162
ag162
ag162
ag162
ag162
ag162
ag162
ag162
ag162
ag162
ag162
ag162
ag162
ag162
ag162
ag162
ag162
ag162
ag162
ag162
ag162
ag162
ag162
ag162
ag162
ag162
ag162
ag162
ag162
ag162
ag162
ag162
ag162
ag162
ag162
ag162
ag162
ag162
ag162
ag162
ag162
ag162
ag162
ag162
ag162
ag162
ag162
ag162
ag162
ag162
ag162
ag162
ag162
ag162
ag162
ag162
ag162
ag162
ag162
ag162
ag162
ag162
ag162
ag162
ag162
ag162
ag162
ag162
ag162
ag162
ag162
ag162
ag162
ag162
ag162
ag162
ag162
ag162
ag162
ag162
ag162
ag162
ag162
ag162
ag162
ag162
ag162
ag162
ag162
ag162
ag162
ag162
ag162
ag162
ag162
ag162
ag162
ag162
ag162
ag162
ag162
ag162
ag162
ag162
ag162
ag162
ag162
ag162
ag162
ag162
ag162
ag162
ag162
ag162
ag162
ag162
ag162
ag162
ag162
ag162
ag162
ag162
ag162
ag162
ag162
ag162
ag162
ag162
ag162
ag162
ag162
ag162
ag162
ag162
ag162
ag162
ag162
ag162
ag162
ag162
ag162
ag162
ag162
ag162
ag162
ag162
ag162
ag162
ag162
ag162
ag162
ag162
ag162
ag162
ag162
ag162
ag162
ag162
ag162
ag162
ag162
ag162
ag162
ag162
ag162
ag162
ag162
ag162
ag162
ag162
ag162
ag162
ag162
ag162
ag162
ag162
ag162
ag162
ag162
ag162
ag162
ag162
ag162
ag162
ag162
ag162
ag162
ag162
ag162
ag162
ag162
ag162
ag162
ag162
ag162
ag162
ag162
ag162
ag162
ag162
ag162
ag162
ag162
ag162
ag162
ag162
ag162
ag162
ag162
ag162
ag162
ag162
ag162
ag162
ag162
ag162
ag162
ag162
ag162
ag162
ag162
ag162
ag162
ag162
ag162
ag162
ag162
ag162
ag162
ag162
ag162
ag162
ag162
ag162
ag162
ag162
ag162
ag162
ag162
ag162
ag162
ag162
ag162
ag162
ag162
ag162
ag162
ag162
ag162
ag162
ag162
ag162
ag162
ag162
ag162
ag162
ag162
ag162
ag162
ag162
ag162
ag162
ag162
ag162
ag162
ag162
ag162
ag162
ag162
ag162
ag162
ag162
ag162
ag162
ag162
ag162
ag162
ag162
ag162
ag162
ag162
ag162
ag162
ag162
ag162
ag162
ag162
ag162
ag162
ag162
ag162
ag162
ag162
ag162
ag162
ag162
ag162
ag162
ag162
ag162
ag162
ag162
ag162
ag162
ag162
ag162
ag162
ag162
ag162
ag162
ag162
ag162
ag162
ag162
ag162
ag162
ag162
ag162
ag162
ag162
ag162
ag162
ag162
ag162
ag162
ag162
ag162
ag162
ag162
ag162
ag162
ag162
ag162
ag162
ag162
ag162
ag162
ag162
ag162
ag162
ag162
ag162
ag162
ag162
ag162
ag162
ag162
ag162
ag162
ag162
ag162
ag162
ag162
ag162
ag162
ag162
ag162
ag162
ag162
ag162
ag162
ag162
ag162
ag162
ag162
ag162
ag162
ag162
ag162
ag162
ag162
ag162
ag162
ag162
ag162
ag162
ag162
ag162
ag162
ag162
ag162
ag162
ag162
ag162
ag162
ag162
ag162
ag162
ag162
ag162
ag162
ag162
ag162
ag162
ag162
ag162
ag162
ag162
ag162
ag162
ag162
ag162
ag162
ag162
ag162
ag162
ag162
ag162
ag162
ag162
ag162
ag162
ag162
ag162
ag162
ag162
ag162
ag162
ag162
ag162
ag162
ag162
ag162
ag162
ag162
ag162
ag162
ag162
ag162
ag162
ag162
ag162
ag162
ag162
ag162
ag162
ag162
ag162
ag162
ag162
ag162
ag162
ag162
ag162
ag162
ag162
ag162
ag162
ag162
ag162
ag162
ag162
ag162
ag162
ag162
ag162
ag162
ag162
ag162
ag162
ag162
ag162
ag162
ag162
ag162
ag162
ag162
ag162
ag162
ag162
ag162
ag162
ag162
ag162
ag162
ag162
ag162
ag162
ag162
ag162
ag162
ag162
ag162
ag162
ag162
ag162
ag162
ag162
ag162
ag162
ag162
ag162
ag162
ag162
ag162
ag162
ag162
ag162
ag162
ag162
ag162
ag162
ag162
ag162
ag162
ag162
ag162
ag162
ag162
ag162
ag162
ag162
ag162
ag162
ag162
ag162
ag162
ag162
ag162
ag162
ag162
ag162
ag162
ag162
ag162
ag162
ag162
ag162
ag162
ag162
ag162
ag162
ag162
ag162
ag162
ag162
ag162
ag162
ag162
ag162
ag162
ag162
ag162
ag162
ag162
ag162
ag162
ag162
ag162
ag162
ag162
ag162
ag162
ag162
ag162
ag162
ag162
ag162
ag162
ag162
ag162
ag162
ag162
ag162
ag162
ag162
ag162
ag162
ag162
ag162
ag162
ag162
ag162
ag162
ag162
ag162
ag162
ag162
ag162
ag162
ag162
ag162
ag162
ag162
ag162
ag162
ag162
ag162
ag162
ag162
ag162
ag162
ag162
ag162
ag162
ag162
ag162
ag162
ag162
ag162
ag162
ag162
ag162
ag162
ag162
ag162
ag162
ag162
ag162
ag162
ag162
ag162
ag162
ag162
ag162
ag162
ag162
ag162
ag162
ag162
ag162
ag162
ag162
ag162
ag162
ag162
ag162
ag162
ag162
ag162
ag162
ag162
ag162
ag162
ag162
ag162
ag162
ag162
ag162
ag162
ag162
ag162
ag162
ag162
ag162
ag162
ag162
ag162
ag162
ag162
ag162
ag162
ag162
ag162
ag162
ag162
ag162
ag162
ag162
ag162
ag162
ag162
ag162
ag162
ag162
ag162
ag162
ag162
ag162
ag162
ag162
ag162
ag162
ag162
ag162
ag162
ag162
ag162
ag162
ag162
ag162
ag162
ag162
ag162
ag162
ag162
ag162
ag162
ag162
ag162
ag162
ag162
ag162
ag162
ag162
ag162
ag162
ag162
ag162
ag162
ag162
ag162
ag162
ag162
ag162
ag162
ag162
ag162
ag162
ag162
ag162
ag162
ag162
ag162
ag162
ag162
ag162
ag162
ag162
ag162
ag162
ag162
ag162
ag162
ag162
ag162
ag162
ag162
ag162
ag162
ag162
ag162
ag162
ag162
ag162
ag162
ag162
ag162
ag162
ag162
ag162
ag162
ag162
ag162
ag162
ag162
ag162
ag162
ag162
ag162
ag162
ag162
ag162
ag162
ag162
ag162
ag162
ag162
ag162
ag162
ag162
ag162
ag162
ag162
ag162
ag162
ag162
ag162
ag162
ag162
ag162
ag162
ag162
ag162
ag162
ag162
ag162
ag162
ag162
ag162
ag162
ag162
ag162
ag162
ag162
ag162
ag162
ag162
ag162
ag162
ag162
ag162
ag162
ag162
ag162
ag162
ag162
ag162
ag162
ag162
ag162
ag162
ag162
ag162
ag162
ag162
ag162
ag162
ag162
ag162
ag162
ag162
ag162
ag162
ag162
ag162
ag162
ag162
ag162
ag162
ag162
ag162
ag162
ag162
ag162
ag162
ag162
ag162
ag162
ag162
ag162
ag162
ag162
ag162
ag162
ag162
ag162
ag162
ag162
ag162
ag162
ag162
ag162
ag162
ag162
ag162
ag162
ag162
ag162
ag162
ag162
ag162
ag162
ag162
ag162
ag162
ag162
ag162
ag162
ag162
ag162
ag162
ag162
ag162
ag162
ag162
ag162
ag162
ag162
ag162
ag162
ag162
ag162
ag162
ag162
ag162
ag162
ag162
ag162
ag162
ag162
ag162
ag162
ag162
ag162
ag162
ag162
ag162
ag162
ag162
ag162
ag162
ag162
ag162
ag162
ag162
ag162
ag162
ag162
ag162
ag162
ag162
ag162
ag162
ag162
ag162
ag162
ag162
ag162
ag162
ag162
ag162
ag162
ag162
ag162
ag162
ag162
ag162
ag162
ag162
ag162
ag162
ag162
ag162
ag162
ag162
ag162
ag162
ag162
ag162
ag162
ag162
ag162
ag162
ag162
ag162
ag162
ag162
ag162
ag162
ag162
ag162
ag162
ag162
ag162
ag162
ag162
ag162
ag162
ag162
ag162
ag162
ag162
ag162
ag162
ag162
ag162
ag162
ag162
ag162
ag162
ag162
ag162
ag162
ag162
ag162
ag162
ag162
ag162
ag162
ag162
ag162
ag162
ag162
ag162
ag162
ag162
ag162
ag162
ag162
ag162
ag162
ag162
ag162
ag162
ag162
ag162
ag162
ag162
ag162
ag162
ag162
ag162
ag162
ag162
ag162
ag162
ag162
ag162
ag162
ag162
ag162
ag162
ag162
ag162
ag162
ag162
ag162
ag162
ag162
ag162
ag162
ag162
ag162
ag162
ag162
ag162
ag162
ag162
ag162
ag162
ag162
ag162
ag162
ag162
ag162
ag162
ag162
ag162
ag162
ag162
ag162
ag162
ag162
ag162
ag162
ag162
ag162
ag162
ag162
ag162
ag162
ag162
ag162
ag162
ag162
ag162
ag162
ag162
ag162
ag162
ag162
ag162
ag162
ag162
ag162
ag162
ag162
ag162
ag162
ag162
ag162
ag162
ag162
ag162
ag162
ag162
ag162
ag162
ag162
ag162
ag162
ag162
ag162
ag162
ag162
ag162
ag162
ag162
ag162
ag162
ag162
ag162
ag162
ag162
ag162
ag162
ag162
ag162
ag162
ag162
ag162
ag162
ag162
ag162
ag162
ag162
ag162
ag162
ag162
ag162
ag162
ag162
ag162
ag162
ag162
ag162
ag162
ag162
ag162
ag162
ag162
ag162
ag162
ag162
ag162
ag162
ag162
ag162
ag162
ag162
ag162
ag162
ag162
ag162
ag162
ag162
ag162
ag162
ag162
ag162
ag162
ag162
ag162
ag162
ag162
ag162
ag162
ag162
ag162
ag162
ag162
ag162
ag162
ag162
ag162
ag162
ag162
ag162
ag162
ag162
ag162
ag162
ag162
ag162
ag162
ag162
ag162
ag162
ag162
ag162
ag162
ag162
ag162
ag162
ag162
ag162
ag162
ag162
ag162
ag162
ag162
ag162
ag162
ag162
ag162
ag162
ag162
ag162
ag162
ag162
ag162
ag162
ag162
ag162
ag162
ag162
ag162
ag162
ag162
ag162
ag162
ag162
ag162
ag162
ag162
ag162
ag162
ag162
ag162
ag162
ag162
ag162
ag162
ag162
ag162
ag162
ag162
ag162
ag162
ag162
ag162
ag162
ag162
ag162
ag162
ag162
ag162
ag162
ag162
ag162
ag162
ag162
ag162
ag162
ag162
ag162
ag162
ag162
ag162
ag162
ag162
ag162
ag162
ag162
ag162
ag162
ag162
ag162
ag162
ag162
ag162
ag162
ag162
ag162
ag162
ag162
ag162
ag162
ag162
ag162
ag162
ag162
ag162
ag162
ag162
ag162
ag162
ag162
ag162
ag162
ag162
ag162
ag162
ag162
ag162
ag162
ag162
ag162
ag162
ag162
ag162
ag162
ag162
ag162
ag162
ag162
ag162
ag162
ag162
ag162
ag162
ag162
ag162
ag162
ag162
ag162
ag162
ag162
ag162
ag162
ag162
ag162
ag162
ag162
ag162
ag162
ag162
ag162
ag162
ag162
ag162
ag162
ag162
ag162
ag162
ag162
ag162
ag162
ag162
ag162
ag162
ag162
ag162
ag162
ag162
ag162
ag162
ag162
ag162
ag162
ag162
ag162
ag162
ag162
ag162
ag162
ag162
ag162
ag162
ag162
ag162
ag162
ag162
ag162
ag162
ag162
ag162
ag162
ag162
ag162
ag162
ag162
ag162
ag162
ag162
ag162
ag162
ag162
ag162
ag162
ag162
ag162
ag162
ag162
ag162
ag162
ag162
ag162
ag162
ag162
ag162
ag162
ag162
ag162
ag162
ag162
ag162
ag162
ag162
ag162
ag162
ag162
ag162
ag162
ag162
ag162
ag162
ag162
ag162
ag162
ag162
ag162
ag162
ag162
ag162
ag162
ag162
ag162
ag162
ag162
ag162
ag162
ag162
ag162
ag162
ag162
ag162
ag162
ag162
ag162
ag162
ag162
ag162
ag162
ag162
ag162
ag162
ag162
ag162
ag162
ag162
ag162
ag162
ag162
ag162
ag162
ag162
ag162
ag162
ag162
ag162
ag162
ag162
ag162
ag162
ag162
ag162
ag162
ag162
ag162
ag162
ag162
ag162
ag162
ag162
ag162
ag162
ag162
ag162
ag162
ag162
ag162
ag162
ag162
ag162
ag162
ag162
ag162
ag162
ag162
ag162
ag162
ag162
ag162
ag162
ag162
ag162
ag162
ag162
ag162
ag162
ag162
ag162
ag162
ag162
ag162
ag162
ag162
ag162
ag162
ag162
ag162
ag162
ag162
ag162
ag162
ag162
ag162
ag162
ag162
ag162
ag162
ag162
ag162
ag162
ag162
ag162
ag162
ag162
ag162
ag162
ag162
ag162
ag162
ag162
ag162
ag162
ag162
ag162
ag162
ag162
ag162
ag162
ag162
ag162
ag162
ag162
ag162
ag162
ag162
ag162
ag162
ag162
ag162
ag162
ag162
ag162
ag162
ag162
ag162
ag162
ag162
ag162
ag162
ag162
ag162
ag162
ag162
ag162
ag162
ag162
ag162
ag162
ag162
ag162
ag162
ag162
ag162
ag162
ag162
ag162
ag162
ag162
ag162
ag162
ag162
ag162
ag162
ag162
ag162
ag162
ag162
ag162
ag162
ag162
ag162
ag162
ag162
ag162
ag162
ag162
ag162
ag162
ag162
ag162
ag162
ag162
ag162
ag162
ag162
ag162
ag162
ag162
ag162
ag162
ag162
ag162
ag162
ag162
ag162
ag162
ag162
ag162
ag162
ag162
ag162
ag162
ag162
ag162
ag162
ag162
ag162
ag162
ag162
ag162
ag162
ag162
ag162
ag162
ag162
ag162
ag162
ag162
ag162
ag162
ag162
ag162
ag162
ag162
ag162
ag162
ag162
ag162
ag162
ag162
ag162
ag162
ag162
ag162
ag162
ag162
ag162
ag162
ag162
ag162
ag162
ag162
ag162
ag162
ag162
ag162
ag162
ag162
ag162
ag162
ag162
ag162
ag162
ag162
ag162
ag162
ag162
ag162
ag162
ag162
ag162
ag162
ag162
ag162
ag162
ag162
ag162
ag162
ag162
ag162
ag162
ag162
ag162
ag162
ag162
ag162
ag162
ag162
ag162
ag162
ag162
ag162
ag162
ag162
ag162
ag162
ag162
ag162
ag162
ag162
ag162
ag162
ag162
ag162
ag162
ag162
ag162
ag162
ag162
ag162
ag162
ag162
ag162
ag162
ag162
ag162
ag162
ag162
ag162
ag162
ag162
ag162
ag162
ag162
ag162
ag162
ag162
ag162
ag162
ag162
ag162
ag162
ag162
ag162
ag162
ag162
ag162
ag162
ag162
ag162
ag162
ag162
ag162
ag162
ag162
ag162
ag162
ag162
ag162
ag162
ag162
ag162
ag162
ag162
ag162
ag162
ag162
ag162
ag162
ag162
ag162
ag162
ag162
ag162
ag162
ag162
ag162
ag162
ag162
ag162
ag162
ag162
ag162
ag162
ag162
ag162
ag162
ag162
ag162
ag162
ag162
ag162
ag162
ag162
ag162
ag162
ag162
ag162
ag162
ag162
ag162
ag162
ag162
ag162
ag162
ag162
ag162
ag162
ag162
ag162
ag162
ag162
ag162
ag162
ag162
ag162
ag162
ag162
ag162
ag162
ag162
ag162
ag162
ag162
ag162
ag162
ag162
ag162
ag162
ag162
ag162
ag162
ag162
ag162
ag162
ag162
ag162
ag162
ag162
ag162
ag162
ag162
ag162
ag162
ag162
ag162
ag162
ag162
ag162
ag162
ag162
ag162
ag162
ag162
ag162
ag162
ag162
ag162
ag162
ag162
ag162
ag162
ag162
ag162
ag162
ag162
ag162
ag162
ag162
ag162
ag162
ag162
ag162
ag162
ag162
ag162
ag162
ag162
ag162
ag162
ag162
ag162
ag162
ag162
ag162
ag162
ag162
ag162
ag162
ag162
ag162
ag162
ag162
ag162
ag162
ag162
ag162
ag162
ag162
ag162
ag162
ag162
ag162
ag162
ag162
ag162
ag162
ag162
ag162
ag162
ag162
ag162
ag162
ag162
ag162
ag162
ag162
ag162
ag162
ag162
ag162
ag162
ag162
ag162
ag162
ag162
ag162
ag162
ag162
ag162
ag162
ag162
ag162
ag162
ag162
ag162
ag162
ag162
ag162
ag162
ag162
ag162
ag162
ag162
ag162
ag162
ag162
ag162
ag162
ag162
ag162
ag162
ag162
ag162
ag162
ag162
ag162
ag162
ag162
ag162
ag162
ag162
ag162
ag162
ag162
ag162
ag162
ag162
ag162
ag162
ag162
ag162
ag162
ag162
ag162
ag162
ag162
ag162
ag162
ag162
ag162
ag162
ag162
ag162
ag162
ag162
ag162
ag162
ag162
ag162
ag162
ag162
ag162
ag162
ag162
ag162
ag162
ag162
ag162
ag162
ag162
ag162
ag162
ag162
ag162
ag162
ag162
ag162
ag162
ag162
ag162
ag162
ag162
ag162
ag162
ag162
ag162
ag162
ag162
ag162
ag162
ag162
ag162
ag162
ag162
ag162
ag162
ag162
ag162
ag162
ag162
ag162
ag162
ag162
ag162
ag162
ag162
ag162
ag162
ag162
ag162
ag162
ag162
ag162
ag162
ag162
ag162
ag162
ag162
ag162
ag162
ag162
ag162
ag162
ag162
ag162
ag162
ag162
ag162
ag162
ag162
ag162
ag162
ag162
ag162
ag162
ag162
ag162
ag162
ag162
ag162
ag162
ag162
ag162
ag162
ag162
ag162
ag162
ag162
ag162
ag162
ag162
ag162
ag162
ag162
ag162
ag162
ag162
ag162
ag162
ag162
ag162
ag162
ag162
ag162
ag162
ag162
ag162
ag162
ag162
ag162
ag162
ag162
ag162
ag162
ag162
ag162
ag162
ag162
ag162
ag162
ag162
ag162
ag162
ag162
ag162
ag162
ag162
ag162
ag162
ag162
ag162
ag162
ag162
ag162
ag162
ag162
ag162
ag162
ag162
ag162
ag162
ag162
ag162
ag162
ag162
ag162
ag162
ag162
ag162
ag162
ag162
ag162
ag162
ag162
ag162
ag162
ag162
ag162
ag162
ag162
ag162
ag162
ag162
ag162
ag162
ag162
ag162
ag162
ag162
ag162
ag162
ag162
ag162
ag162
ag162
ag162
ag162
ag162
ag162
ag162
ag162
ag162
ag162
ag162
ag162
ag162
ag162
ag162
ag162
ag162
ag162
ag162
ag162
ag162
ag162
ag162
ag162
ag162
ag162
ag162
ag162
ag162
ag162
ag162
ag162
ag162
ag162
ag162
ag162
ag162
ag162
ag162
ag162
ag162
ag162
ag162
ag162
ag162
ag162
ag162
ag162
ag162
ag162
ag162
ag162
ag162
ag162
ag162
ag162
ag162
ag162
ag162
ag162
ag162
ag162
ag162
ag162
ag162
ag162
ag162
ag162
ag162
ag162
ag162
ag162
ag162
ag162
ag162
ag162
ag162
ag162
ag162
ag162
ag162
ag162
ag162
ag162
ag162
ag162
ag162
ag162
ag162
ag162
ag162
ag162
ag162
ag162
ag162
ag162
ag162
ag162
ag162
ag162
ag162
ag162
ag162
ag162
ag162
ag162
ag162
ag162
ag162
ag162
ag162
ag162
ag162
ag162
ag162
ag162
ag162
ag162
ag162
ag162
ag162
ag162
ag162
ag162
ag162
ag162
ag162
ag162
ag162
ag162
ag162
ag162
ag162
ag162
ag162
ag162
ag162
ag162
ag162
ag162
ag162
ag162
ag162
ag162
ag162
ag162
ag162
ag162
ag162
ag162
ag162
ag162
ag162
ag162
ag162
ag162
ag162
ag162
ag162
ag162
ag162
ag162
ag162
ag162
ag162
ag162
ag162
ag162
ag162
ag162
ag162
ag162
ag162
ag162
ag162
ag162
ag162
ag162
ag162
ag162
ag162
ag162
ag162
ag162
ag162
ag162
ag162
ag162
ag162
ag162
ag162
ag162
ag162
ag162
ag162
ag162
ag162
ag162
ag162
ag162
ag162
ag162
ag162
ag162
ag162
ag162
ag162
ag162
ag162
ag162
ag162
ag162
ag162
ag162
ag162
ag162
ag162
ag162
ag162
ag162
ag162
ag162
ag162
ag162
ag162
ag162
ag162
ag162
ag162
ag162
ag162
ag162
ag162
ag162
ag162
ag162
ag162
ag162
ag162
ag162
ag162
ag162
ag162
ag162
ag162
ag162
ag162
ag162
ag162
ag162
ag162
ag162
ag162
ag162
ag162
ag162
ag162
ag162
ag162
ag162
ag162
ag162
ag162
ag162
ag162
ag162
ag162
ag162
ag162
ag162
ag162
ag162
ag162
ag162
ag162
ag162
ag162
ag162
ag162
ag162
ag162
ag162
ag162
ag162
ag162
ag162
ag162
ag162
ag162
ag162
ag162
ag162
ag162
ag162
ag162
ag162
ag162
ag162
ag162
ag162
ag162
ag162
ag162
ag162
ag162
ag162
ag162
ag162
ag162
ag162
ag162
ag162
ag162
ag162
ag162
ag162
ag162
ag162
ag162
ag162
ag162
ag162
ag162
ag162
ag162
ag162
ag162
ag162
ag162
ag162
ag162
ag162
ag162
ag162
ag162
ag162
ag162
ag162
ag162
ag162
ag162
ag162
ag162
ag162
ag162
ag162
ag162
ag162
ag162
ag162
ag162
ag162
ag162
ag162
ag162
ag162
ag162
ag162
ag162
ag162
ag162
ag162
ag162
ag162
ag162
ag162
ag162
ag162
ag162
ag162
ag162
ag162
ag162
ag162
ag162
ag162
ag162
ag162
ag162
ag162
ag162
ag162
ag162
ag162
ag162
ag162
ag162
ag162
ag162
ag162
ag162
ag162
ag162
ag162
ag162
ag162
ag162
ag162
ag162
ag162
ag162
ag162
ag162
ag162
ag162
ag162
ag162
ag162
ag162
ag162
ag162
ag162
ag162
ag162
ag162
ag162
ag162
ag162
ag162
ag162
ag162
ag162
ag162
ag162
ag162
ag162
ag162
ag162
ag162
ag162
ag162
ag162
ag162
ag162
ag162
ag162
ag162
ag162
ag162
ag162
ag162
ag162
ag162
ag162
ag162
ag162
ag162
ag162
ag162
ag162
ag162
ag162
ag162
ag162
ag162
ag162
ag162
ag162
ag162
ag162
ag162
ag162
ag162
ag162
ag162
ag162
ag162
ag162
ag162
ag162
ag162
ag162
ag162
ag162
ag162
ag162
ag162
ag162
ag162
ag162
ag162
ag162
ag162
ag162
ag162
ag162
ag162
ag162
ag162
ag162
ag162
ag162
ag162
ag162
ag162
ag162
ag162
ag162
ag162
ag162
ag162
ag162
ag162
ag162
ag162
ag162
ag162
ag162
ag162
ag162
ag162
ag162
ag162
ag162
ag162
ag162
ag162
ag162
ag162
ag162
ag162
ag162
ag162
ag162
ag162
ag162
ag162
ag162
ag162
ag162
ag162
ag162
ag162
ag162
ag162
ag162
ag162
ag162
ag162
ag162
ag162
ag162
ag162
ag162
ag162
ag162
ag162
ag162
ag162
ag162
ag162
ag162
ag162
ag162
ag162
ag162
ag162
ag162
ag162
ag162
ag162
ag162
ag162
ag162
ag162
ag162
ag162
ag162
ag162
ag162
ag162
ag162
ag162
ag162
ag162
ag162
ag162
ag162
ag162
ag162
ag162
ag162
ag162
ag162
ag162
ag162
ag162
ag162
ag162
ag162
ag162
ag162
ag162
ag162
ag162
ag162
ag162
ag162
ag162
ag162
ag162
ag162
ag162
ag162
ag162
ag162
ag162
ag162
ag162
ag162
ag162
ag162
ag162
ag162
ag162
ag162
ag162
ag162
ag162
ag162
ag162
ag162
ag162
ag162
ag162
ag162
ag162
ag162
ag162
ag162
ag162
ag162
ag162
ag162
ag162
ag162
ag162
ag162
ag162
ag162
ag162
ag162
ag162
ag162
ag162
ag162
ag162
ag162
ag162
ag162
ag162
ag162
ag162
ag162
ag162
ag162
ag162
ag162
ag162
ag162
ag162
ag162
ag162
ag162
ag162
ag162
ag162
ag162
ag162
ag162
ag162
ag162
ag162
ag162
ag162
ag162
ag162
ag162
ag162
ag162
ag162
ag162
ag162
ag162
ag162
ag162
ag162
ag162
ag162
ag162
ag162
ag162
ag162
ag162
ag162
ag162
ag162
ag162
ag162
ag162
ag162
ag162
ag162
ag162
ag162
ag162
ag162
ag162
ag162
ag162
ag162
ag162
ag162
ag162
ag162
ag162
ag162
ag162
ag162
ag162
ag162
ag162
ag162
ag162
ag162
ag162
ag162
ag162
ag162
ag162
ag162
ag162
ag162
ag162
ag162
ag162
ag162
ag162
ag162
ag162
ag162
ag162
ag162
ag162
ag162
ag162
ag162
ag162
ag162
ag162
ag162
ag162
ag162
ag162
ag162
ag162
ag162
ag162
ag162
ag162
ag162
ag162
ag162
ag162
ag162
ag162
ag162
ag162
ag162
ag162
ag162
ag162
ag162
ag162
ag162
ag162
ag162
ag162
ag162
ag162
ag162
ag162
ag162
ag162
ag162
ag162
ag162
ag162
ag162
ag162
ag162
ag162
ag162
ag162
ag162
ag162
ag162
ag162
ag162
ag162
ag162
ag162
ag162
ag162
ag162
ag162
ag162
ag162
ag162
ag162
ag162
ag162
ag162
ag162
ag162
ag162
ag162
ag162
ag162
ag162
ag162
ag162
ag162
ag162
ag162
ag162
ag162
ag162
ag162
ag162
ag162
ag162
ag162
ag162
ag162
ag162
ag162
ag162
ag162
ag162
ag162
ag162
ag162
ag162
ag162
ag162
ag162
ag162
ag162
ag162
ag162
ag162
ag162
ag162
ag162
ag162
ag162
ag162
ag162
ag162
ag162
ag162
ag162
ag162
ag162
ag162
ag162
ag162
ag162
ag162
ag162
ag162
ag162
ag162
ag162
ag162
ag162
ag162
ag162
ag162
ag162
ag162
ag162
ag162
ag162
ag162
ag162
ag162
ag162
ag162
ag162
ag162
ag162
ag162
ag162
ag162
ag162
ag162
ag162
ag162
ag162
ag162
ag162
ag162
ag162
ag162
ag162
ag162
ag162
ag162
ag162
ag162
ag162
ag162
ag162
ag162
ag162
ag162
ag162
ag162
ag162
ag162
ag162
ag162
ag162
ag162
ag162
ag162
ag162
ag162
ag162
ag162
ag162
ag162
ag162
ag162
ag162
ag162
ag162
ag162
ag162
ag162
ag162
ag162
ag162
ag162
ag162
ag162
ag162
ag162
ag162
ag162
ag162
ag162
ag162
ag162
ag162
ag162
ag162
ag162
ag162
ag162
ag162
ag162
ag162
ag162
ag162
ag162
ag162
ag162
ag162
ag162
ag162
ag162
ag162
ag162
ag162
ag162
ag162
ag162
ag162
ag162
ag162
ag162
ag162
ag162
ag162
ag162
ag162
ag162
ag162
ag162
ag162
ag162
ag162
ag162
ag162
ag162
ag162
ag162
ag162
ag162
ag162
ag162
ag162
ag162
ag162
ag162
ag162
ag162
ag162
ag162
ag162
ag162
ag162
ag162
ag162
ag162
ag162
ag162
ag162
ag162
ag162
ag162
ag162
ag162
ag162
ag162
ag162
ag162
ag162
ag162
ag162
ag162
ag162
ag162
ag162
ag162
ag162
ag162
ag162
ag162
ag162
ag162
ag162
ag162
ag162
ag162
ag162
ag162
ag162
ag162
ag162
ag162
ag162
ag162
ag162
ag162
ag162
ag162
ag162
ag162
ag162
ag162
ag162
ag162
ag162
ag162
ag162
ag162
ag162
ag162
ag162
ag162
ag162
ag162
ag162
ag162
ag162
ag162
ag162
ag162
ag162
ag162
ag162
ag162
ag162
ag162
ag162
ag162
ag162
ag162
ag162
ag162
ag162
ag162
ag162
ag162
ag162
ag162
ag162
ag162
ag162
ag162
ag162
ag162
ag162
ag162
ag162
ag162
ag162
ag162
ag162
ag162
ag162
ag162
ag162
ag162
ag162
ag162
ag162
ag162
ag162
ag162
ag162
ag162
ag162
ag162
ag162
ag162
ag162
ag162
ag162
ag162
ag162
ag162
ag162
ag162
ag162
ag162
ag162
ag162
ag162
ag162
ag162
ag162
ag162
ag162
ag162
ag162
ag162
ag162
ag162
ag162
ag162
ag162
ag162
ag162
ag162
ag162
ag162
ag162
ag162
ag162
ag162
ag162
ag162
ag162
ag162
ag162
ag162
ag162
ag162
ag162
ag162
ag162
ag162
ag162
ag162
ag162
ag162
ag162
ag162
ag162
ag162
ag162
ag162
ag162
ag162
ag162
ag162
ag162
ag162
ag162
ag162
ag162
ag162
ag162
ag162
ag162
ag162
ag162
ag162
ag162
ag162
ag162
ag162
ag162
ag162
ag162
ag162
ag162
ag162
ag162
ag162
ag162
ag162
ag162
ag162
ag162
ag162
ag162
ag162
ag162
ag162
ag162
ag162
ag162
ag162
ag162
ag162
ag162
ag162
ag162
ag162
ag162
ag162
ag162
ag162
ag162
ag162
ag162
ag162
ag162
ag162
ag162
ag162
ag162
ag162
ag162
ag162
ag162
ag162
ag162
ag162
ag162
ag162
ag162
ag162
ag162
ag162
ag162
ag162
ag162
ag162
ag162
ag162
ag162
ag162
ag162
ag162
ag162
ag162
ag162
ag162
ag162
ag162
ag162
ag162
ag162
ag162
ag162
ag162
ag162
ag162
ag162
ag162
ag162
ag162
ag162
ag162
ag162
ag162
ag162
ag162
ag162
ag162
ag162
ag162
ag162
ag162
ag162
ag162
ag162
ag162
ag162
ag162
ag162
ag162
ag162
ag162
ag162
ag162
ag162
ag162
ag162
ag162
ag162
ag162
ag162
ag162
ag162
ag162
ag162
ag162
ag162
ag162
ag162
ag162
ag162
ag162
ag162
ag162
ag162
ag162
ag162
ag162
ag162
ag162
ag162
ag162
ag162
ag162
ag162
ag162
ag162
ag162
ag162
ag162
ag162
ag162
ag162
ag162
ag162
ag162
ag162
ag162
ag162
ag162
ag162
ag162
ag162
ag162
ag162
ag162
ag162
ag162
ag162
ag162
ag162
ag162
ag162
ag162
ag162
ag162
ag162
ag162
ag162
ag162
ag162
ag162
ag162
ag162
ag162
ag162
ag162
ag162
ag162
ag162
ag162
ag162
ag162
ag162
ag162
ag162
ag162
ag162
ag162
ag162
ag162
ag162
ag162
ag162
ag162
ag162
ag162
ag162
ag162
ag162
ag162
ag162
ag162
ag162
ag162
ag162
ag162
ag162
ag162
ag162
ag162
ag162
ag162
ag162
ag162
ag162
ag162
ag162
ag162
ag162
ag162
ag162
ag162
ag162
ag162
ag162
ag162
ag162
ag162
ag162
ag162
ag162
ag162
ag162
ag162
ag162
ag162
ag162
ag162
ag162
ag162
ag162
ag162
ag162
ag162
ag162
ag162
ag162
ag162
ag162
ag162
ag162
ag162
ag162
ag162
ag162
ag162
ag162
ag162
ag162
ag162
ag162
ag162
ag162
ag162
ag162
ag162
ag162
ag162
ag162
ag162
ag162
ag162
ag162
ag162
ag162
ag162
ag162
ag162
ag162
ag162
ag162
ag162
ag162
ag162
ag162
ag162
ag162
ag162
ag162
ag162
ag162
ag162
ag162
ag162
ag162
ag162
ag162
ag162
ag162
ag162
ag162
ag162
ag162
ag162
ag162
ag162
ag162
ag162
ag162
ag162
ag162
ag162
ag162
ag162
ag162
ag162
ag162
ag162
ag162
ag162
ag162
ag162
ag162
ag162
ag162
ag162
ag162
ag162
ag162
ag162
ag162
ag162
ag162
ag162
ag162
ag162
ag162
ag162
ag162
ag162
ag162
ag162
ag162
ag162
ag162
ag162
ag162
ag162
ag162
ag162
ag162
ag162
ag162
ag162
ag162
ag162
ag162
ag162
ag162
ag162
ag162
ag162
ag162
ag162
ag162
ag162
ag162
ag162
ag162
ag162
ag162
ag162
ag162
ag162
ag162
ag162
ag162
ag162
ag162
ag162
ag162
ag162
ag162
ag162
ag162
ag162
ag162
ag162
ag162
ag162
ag162
ag162
ag162
ag162
ag162
ag162
ag162
ag162
ag162
ag162
ag162
ag162
ag162
ag162
ag162
ag162
ag162
ag162
ag162
ag162
ag162
ag162
ag162
ag162
ag162
ag162
ag162
ag162
ag162
ag162
ag162
ag162
ag162
ag162
ag162
ag162
ag162
ag162
ag162
ag162
ag162
ag162
ag162
ag162
ag162
ag162
ag162
ag162
ag162
ag162
ag162
ag162
ag162
ag162
ag162
ag162
ag162
ag162
ag162
ag162
ag162
ag162
ag162
ag162
ag162
ag162
ag162
ag162
ag162
ag162
ag162
ag162
ag162
ag162
ag162
ag162
ag162
ag162
ag162
ag162
ag162
ag162
ag162
ag162
ag162
ag162
ag162
ag162
ag162
ag162
ag162
ag162
ag162
ag162
ag162
ag162
ag162
ag162
ag162
ag162
ag162
ag162
ag162
ag162
ag162
ag162
ag162
ag162
ag162
ag162
ag162
ag162
ag162
ag162
ag162
ag162
ag162
ag162
ag162
ag162
ag162
ag162
ag162
ag162
ag162
ag162
ag162
ag162
ag162
ag162
ag162
ag162
ag162
ag162
ag162
ag162
ag162
ag162
ag162
ag162
ag162
ag162
ag162
ag162
ag162
ag162
ag162
ag162
ag162
ag162
ag162
ag162
ag162
ag162
ag162
ag162
ag162
ag162
ag162
ag162
ag162
ag162
ag162
ag162
ag162
ag162
ag162
ag162
ag162
ag162
ag162
ag162
ag162
ag162
ag162
ag162
ag162
ag162
ag162
ag162
ag162
ag162
ag162
ag162
ag162
ag162
ag162
ag162
ag162
ag162
ag162
ag162
ag162
ag162
ag162
ag162
ag162
ag162
ag162
ag162
ag162
ag162
ag162
ag162
ag162
ag162
ag162
ag162
ag162
ag162
ag162
ag162
ag162
ag162
ag162
ag162
ag162
ag162
ag162
ag162
ag162
ag162
ag162
ag162
ag162
ag162
ag162
ag162
ag162
ag162
ag162
ag162
ag162
ag162
ag162
ag162
ag162
ag162
ag162
ag162
ag162
ag162
ag162
ag162
ag162
ag162
ag162
ag162
ag162
ag162
ag162
ag162
ag162
ag162
ag162
ag162
ag162
ag162
ag162
ag162
ag162
ag162
ag162
ag162
ag162
ag162
ag162
ag162
ag162
ag162
ag162
ag162
ag162
ag162
ag162
ag162
ag162
ag162
ag162
ag162
ag162
ag162
ag162
ag162
ag162
ag162
ag162
ag162
ag162
ag162
ag162
ag162
ag162
ag162
ag162
ag162
ag162
ag162
ag162
ag162
ag162
ag162
ag162
ag162
ag162
ag162
ag162
ag162
ag162
ag162
ag162
ag162
ag162
ag162
ag162
ag162
ag162
ag162
ag162
ag162
ag162
ag162
ag162
ag162
ag162
ag162
ag162
ag162
ag162
ag162
ag162
ag162
ag162
ag162
ag162
ag162
ag162
ag162
ag162
ag162
ag162
ag162
ag162
ag162
ag162
ag162
ag162
ag162
ag162
ag162
ag162
ag162
ag162
ag162
ag162
ag162
ag162
ag162
ag162
ag162
ag162
ag162
ag162
ag162
ag162
ag162
ag162
ag162
ag162
ag162
ag162
ag162
ag162
ag162
ag162
ag162
ag162
ag162
ag162
ag162
ag162
ag162
ag162
ag162
ag162
ag162
ag162
ag162
ag162
ag162
ag162
ag162
ag162
ag162
ag162
ag162
ag162
ag162
ag162
ag162
ag162
ag162
ag162
ag162
ag162
ag162
ag162
ag162
ag162
ag162
ag162
ag162
ag162
ag162
ag162
ag162
ag162
ag162
ag162
ag162
ag162
ag162
ag162
ag162
ag162
ag162
ag162
ag162
ag162
ag162
ag162
ag162
ag162
ag162
ag162
ag162
ag162
ag162
ag162
ag162
ag162
ag162
ag162
ag162
ag162
ag162
ag162
ag162
ag162
ag162
ag162
ag162
ag162
ag162
ag162
ag162
ag162
ag162
ag162
ag162
ag162
ag162
ag162
ag162
ag162
ag162
ag162
ag162
ag162
ag162
ag162
ag162
ag162
ag162
ag162
ag162
ag162
ag162
ag162
ag162
ag162
ag162
ag162
ag162
ag162
ag162
ag162
ag162
ag162
ag162
ag162
ag162
ag162
ag162
ag162
ag162
ag162
ag162
ag162
ag162
ag162
ag162
ag162
ag162
ag162
ag162
ag162
ag162
ag162
ag162
ag162
ag162
ag162
ag162
ag162
ag162
ag162
ag162
ag162
ag162
ag162
ag162
ag162
ag162
ag162
ag162
ag162
ag162
ag162
ag162
ag162
ag162
ag162
ag162
ag162
ag162
ag162
ag162
ag162
ag162
ag162
ag162
ag162
ag162
ag162
ag162
ag162
ag162
ag162
ag162
ag162
ag162
ag162
ag162
ag162
ag162
ag162
ag162
ag162
ag162
ag162
ag162
ag162
ag162
ag162
ag162
ag162
ag162
ag162
ag162
ag162
ag162
ag162
ag162
ag162
ag162
ag162
ag162
ag162
ag162
ag162
ag162
ag162
ag162
ag162
ag162
ag162
ag162
ag162
ag162
ag162
ag162
ag162
ag162
ag162
ag162
ag162
ag162
ag162
ag162
ag162
ag162
ag162
ag162
ag162
ag162
ag162
ag162
ag162
ag162
ag162
ag162
ag162
ag162
ag162
ag162
ag162
ag162
ag162
ag162
ag162
ag162
ag162
ag162
ag162
ag162
ag162
ag162
ag162
ag162
ag162
ag162
ag162
ag162
ag162
ag162
ag162
ag162
ag162
ag162
ag162
ag162
ag162
ag162
ag162
ag162
ag162
ag162
ag162
ag162
ag162
ag162
ag162
ag162
ag162
ag162
ag162
ag162
ag162
ag162
ag162
ag162
ag162
ag162
ag162
ag162
ag162
ag162
ag162
ag162
ag162
ag162
ag162
ag162
ag162
ag162
ag162
ag162
ag162
ag162
ag162
ag162
ag162
ag162
ag162
ag162
ag162
ag162
ag162
ag162
ag162
ag162
ag162
ag162
ag162
ag162
ag162
ag162
ag162
ag162
ag162
ag162
ag162
ag162
ag162
ag162
ag162
ag162
ag162
ag162
ag162
ag162
ag162
ag162
ag162
ag162
ag162
ag162
ag162
ag162
ag162
ag162
ag162
ag162
ag162
ag162
ag162
ag162
ag162
ag162
ag162
ag162
ag162
ag162
ag162
ag162
ag162
ag162
ag162
ag162
ag162
ag162
ag162
ag162
ag162
ag162
ag162
ag162
ag162
ag162
ag162
ag162
ag162
ag162
ag162
ag162
ag162
ag162
ag162
ag162
ag162
ag162
ag162
ag162
ag162
ag162
ag162
ag162
ag162
ag162
ag162
ag162
ag162
ag162
ag162
ag162
ag162
ag162
ag162
ag162
ag162
ag162
ag162
ag162
ag162
ag162
ag162
ag162
ag162
ag162
ag162
ag162
ag162
ag162
ag162
ag162
ag162
ag162
ag162
ag162
ag162
ag162
ag162
ag162
ag162
ag162
ag162
ag162
ag162
ag162
ag162
ag162
ag162
ag162
ag162
ag162
ag162
ag162
ag162
ag162
ag162
ag162
ag162
ag162
ag162
ag162
ag162
ag162
ag162
ag162
ag162
ag162
ag162
ag162
ag162
ag162
ag162
ag162
ag162
ag162
ag162
ag162
ag162
ag162
ag162
ag162
ag162
ag162
ag162
ag162
ag162
ag162
ag162
ag162
ag162
ag162
ag162
ag162
ag162
ag162
ag162
ag162
ag162
ag162
ag162
ag162
ag162
ag162
ag162
ag162
ag162
ag162
ag162
ag162
ag162
ag162
ag162
ag162
ag162
ag162
ag162
ag162
ag162
ag162
ag162
ag162
ag162
ag162
ag162
ag162
ag162
ag162
ag162
ag162
ag162
ag162
ag162
ag162
ag162
ag162
ag162
ag162
ag162
ag162
ag162
ag162
ag162
ag162
ag162
ag162
ag162
ag162
ag162
ag162
ag162
ag162
ag162
ag162
ag162
ag162
ag162
ag162
ag162
ag162
ag162
ag162
ag162
ag162
ag162
ag162
ag162
ag162
ag162
ag162
ag162
ag162
ag162
ag162
ag162
ag162
ag162
ag162
ag162
ag162
ag162
ag162
ag162
ag162
ag162
ag162
ag162
ag162
ag162
ag162
ag162
ag162
ag162
ag162
ag162
ag162
ag162
ag162
ag162
ag162
ag162
ag162
ag162
ag162
ag162
ag162
ag162
ag162
ag162
ag162
ag162
ag162
ag162
ag162
ag162
ag162
ag162
ag162
ag162
ag162
ag162
ag162
ag162
ag162
ag162
ag162
ag162
ag162
ag162
ag162
ag162
ag162
ag162
ag162
ag162
ag162
ag162
ag162
ag162
ag162
ag162
ag162
ag162
ag162
ag162
ag162
ag162
ag162
ag162
ag162
ag162
ag162
ag162
ag162
ag162
ag162
ag162
ag162
ag162
ag162
ag162
ag162
ag162
ag162
ag162
ag162
ag162
ag162
ag162
ag162
ag162
ag162
ag162
ag162
ag162
ag162
ag162
ag162
ag162
ag162
ag162
ag162
ag162
ag162
ag162
ag162
ag162
ag162
ag162
ag162
ag162
ag162
ag162
ag162
ag162
ag162
ag162
ag162
ag162
ag162
ag162
ag162
ag162
ag162
ag162
ag162
ag162
ag162
ag162
ag162
ag162
ag162
ag162
ag162
ag162
ag162
ag162
ag162
ag162
ag162
ag162
ag162
ag162
ag162
ag162
ag162
ag162
ag162
ag162
ag162
ag162
ag162
ag162
ag162
ag162
ag162
ag162
ag162
ag162
ag162
ag162
ag162
ag162
ag162
ag162
ag162
ag162
ag162
ag162
ag162
ag162
ag162
ag162
ag162
ag162
ag162
ag162
ag162
ag162
ag162
ag162
ag162
ag162
ag162
ag162
ag162
ag162
ag162
ag162
ag162
ag162
ag162
ag162
ag162
ag162
ag162
ag162
ag162
ag162
ag162
ag162
ag162
ag162
ag162
ag162
ag162
ag162
ag162
ag162
ag162
ag162
ag162
ag162
ag162
ag162
ag162
ag162
ag162
ag162
ag162
ag162
ag162
ag162
ag162
ag162
ag162
ag162
ag162
ag162
ag162
ag162
ag162
ag162
ag162
ag162
ag162
ag162
ag162
ag162
ag162
ag162
ag162
ag162
ag162
ag162
ag162
ag162
ag162
ag162
ag162
ag162
ag162
ag162
ag162
ag162
ag162
ag162
ag162
ag162
ag162
ag162
ag162
ag162
ag162
ag162
ag162
ag162
ag162
ag162
ag162
ag162
ag162
ag162
ag162
ag162
ag162
ag162
ag162
ag162
ag162
ag162
ag162
ag162
ag162
ag162
ag162
ag162
ag162
ag162
ag162
ag162
ag162
ag162
ag162
ag162
ag162
ag162
ag162
ag162
ag162
ag162
ag162
ag162
ag162
ag162
ag162
ag162
ag162
ag162
ag162
ag162
ag162
ag162
ag162
ag162
ag162
ag162
ag162
ag162
ag162
ag162
ag162
ag162
ag162
ag162
ag162
ag162
ag162
ag162
ag162
ag162
ag162
ag162
ag162
ag162
ag162
ag162
ag162
ag162
ag162
ag162
ag162
ag162
ag162
ag162
ag162
ag162
ag162
ag162
ag162
ag162
ag162
ag162
ag162
ag162
ag162
ag162
ag162
ag162
ag162
ag162
ag162
ag162
ag162
ag162
ag162
ag162
ag162
ag162
ag162
ag162
ag162
ag162
ag162
ag162
ag162
ag162
ag162
ag162
ag162
ag162
ag162
ag162
ag162
ag162
ag162
ag162
ag162
ag162
ag162
ag162
ag162
ag162
ag162
ag162
ag162
ag162
ag162
ag162
ag162
ag162
ag162
ag162
ag162
ag162
ag162
ag162
ag162
ag162
ag162
ag162
ag162
ag162
ag162
ag162
ag162
ag162
ag162
ag162
ag162
ag162
ag162
ag162
ag162
ag162
ag162
ag162
ag162
ag162
ag162
ag162
ag162
ag162
ag162
ag162
ag162
ag162
ag162
ag162
ag162
ag162
ag162
ag162
ag162
ag162
ag162
ag162
ag162
ag162
ag162
ag162
ag162
ag162
ag162
ag162
ag162
ag162
ag162
ag162
ag162
ag162
ag162
ag162
ag162
ag162
ag162
ag162
ag162
ag162
ag162
ag162
ag162
ag162
ag162
ag162
ag162
ag162
ag162
ag162
ag162
ag162
ag162
ag162
ag162
ag162
ag162
ag162
ag162
ag162
ag162
ag162
ag162
ag162
ag162
ag162
ag162
ag162
ag162
ag162
ag162
ag162
ag162
ag162
ag162
ag162
ag162
ag162
ag162
ag162
ag162
ag162
ag162
ag162
ag162
ag162
ag162
ag162
ag162
ag162
ag162
ag162
ag162
ag162
ag162
ag162
ag162
ag162
ag162
ag162
ag162
ag162
ag162
ag162
ag162
ag162
ag162
ag162
ag162
ag162
ag162
ag162
ag162
ag162
ag162
ag162
ag162
ag162
ag162
ag162
ag162
ag162
ag162
ag162
ag162
ag162
ag162
ag162
ag162
ag162
ag162
ag162
ag162
ag162
ag162
ag162
ag162
ag162
ag162
ag162
ag162
ag162
ag162
ag162
ag162
ag162
ag162
ag162
ag162
ag162
ag162
ag162
ag162
ag162
ag162
ag162
ag162
ag162
ag162
ag162
ag162
ag162
ag162
ag162
ag162
ag162
ag162
ag162
ag162
ag162
ag162
ag162
ag162
ag162
ag162
ag162
ag162
ag162
ag162
ag162
ag162
ag162
ag162
ag162
ag162
ag162
ag162
ag162
ag162
ag162
ag162
ag162
ag162
ag162
ag162
ag162
ag162
ag162
ag162
ag162
ag162
ag162
ag162
ag162
ag162
ag162
ag162
ag162
ag162
ag162
ag162
ag162
ag162
ag162
ag162
ag162
ag162
ag162
ag162
ag162
ag162
ag162
ag162
ag162
ag162
ag162
ag162
ag162
ag162
ag162
ag162
ag162
ag162
ag162
ag162
ag162
ag162
ag162
ag162
ag162
ag162
ag162
ag162
ag162
ag162
ag162
ag162
ag162
ag162
ag162
ag162
ag162
ag162
ag162
ag162
ag162
ag162
ag162
ag162
ag162
ag162
ag162
ag162
ag162
ag162
ag162
ag162
ag162
ag162
ag162
ag162
ag162
ag162
ag162
ag162
ag162
ag162
ag162
ag162
ag162
ag162
ag162
ag162
ag162
ag162
ag162
ag162
ag162
ag162
ag162
ag162
ag162
ag162
ag162
ag162
ag162
ag162
ag162
ag162
ag162
ag162
ag162
ag162
ag162
ag162
ag162
ag162
ag162
ag162
ag162
ag162
ag162
ag162
ag162
ag162
ag162
ag162
ag162
ag162
ag162
ag162
ag162
ag162
ag162
ag162
ag162
ag162
ag162
ag162
ag162
ag162
ag162
ag162
ag162
ag162
ag162
ag162
ag162
ag162
ag162
ag162
ag162
ag162
ag162
ag162
ag162
ag162
ag162
ag162
ag162
ag162
ag162
ag162
ag162
ag162
ag162
ag162
ag162
ag162
ag162
ag162
ag162
ag162
ag162
ag162
ag162
ag162
ag162
ag162
ag162
ag162
ag162
ag162
ag162
ag162
ag162
ag162
ag162
ag162
ag162
ag162
ag162
ag162
ag162
ag162
ag162
ag162
ag162
ag162
ag162
ag162
ag162
ag162
ag162
ag162
ag162
ag162
ag162
ag162
ag162
ag162
ag162
ag162
ag162
ag162
ag162
ag162
ag162
ag162
ag162
ag162
ag162
ag162
ag162
ag162
ag162
ag162
ag162
ag162
ag162
ag162
ag162
ag162
ag162
ag162
ag162
ag162
ag162
ag162
ag162
ag162
ag162
ag162
ag162
ag162
ag162
ag162
ag162
ag162
ag162
ag162
ag162
ag162
ag162
ag162
ag162
ag162
ag162
ag162
ag162
ag162
ag162
ag162
ag162
ag162
ag162
ag162
ag162
ag162
ag162
ag162
ag162
ag162
ag162
ag162
ag162
ag162
ag162
ag162
ag162
ag162
ag162
ag162
ag162
ag162
ag162
ag162
ag162
ag162
ag162
ag162
ag162
ag162
ag162
ag162
ag162
ag162
ag162
ag162
ag162
ag162
ag162
ag162
ag162
ag162
ag162
ag162
ag162
ag162
ag162
ag162
ag162
ag162
ag162
ag162
ag162
ag162
ag162
ag162
ag162
ag162
ag162
ag162
ag162
ag162
ag162
ag162
ag162
ag162
ag162
ag162
ag162
ag162
ag162
ag162
ag162
ag162
ag162
ag162
ag162
ag162
ag162
ag162
ag162
ag162
ag162
ag162
ag162
ag162
ag162
ag162
ag162
ag162
ag162
ag162
ag162
ag162
ag162
ag162
ag162
ag162
ag162
ag162
ag162
ag162
ag162
ag162
ag162
ag162
ag162
ag162
ag162
ag162
ag162
ag162
ag162
ag162
ag162
ag162
ag162
ag162
ag162
ag162
ag162
ag162
ag162
ag162
ag162
ag162
ag162
ag162
ag162
ag162
ag162
ag162
ag162
ag162
ag162
ag162
ag162
ag162
ag162
ag162
ag162
ag162
ag162
ag162
ag162
ag162
ag162
ag162
ag162
ag162
ag162
ag162
ag162
ag162
ag162
ag162
ag162
ag162
ag162
ag162
ag162
ag162
ag162
ag162
ag162
ag162
ag162
ag162
ag162
ag162
ag162
ag162
ag162
ag162
ag162
ag162
ag162
ag162
ag162
ag162
ag162
ag162
ag162
ag162
ag162
ag162
ag162
ag162
ag162
ag162
ag162
ag162
ag162
ag162
ag162
ag162
ag162
ag162
ag162
ag162
ag162
ag162
ag162
ag162
ag162
ag162
ag162
ag162
ag162
ag162
ag162
ag162
ag162
ag162
ag162
ag162
ag162
ag162
ag162
ag162
ag162
ag162
ag162
ag162
ag162
ag162
ag162
ag162
ag162
ag162
ag162
ag162
ag162
ag162
ag162
ag162
ag162
ag162
ag162
ag162
ag162
ag162
ag162
ag162
ag162
ag162
ag162
ag162
ag162
ag162
ag162
ag162
ag162
ag162
ag162
ag162
ag162
ag162
ag162
ag162
ag162
ag162
ag162
ag162
ag162
ag162
ag162
ag162
ag162
ag162
ag162
ag162
ag162
ag162
ag162
ag162
ag162
ag162
ag162
ag162
ag162
ag162
ag162
ag162
ag162
ag162
ag162
ag162
ag162
ag162
ag162
ag162
ag162
ag162
ag162
ag162
ag162
ag162
ag162
ag162
ag162
ag162
ag162
ag162
ag162
ag162
ag162
ag162
ag162
ag162
ag162
ag162
ag162
ag162
ag162
ag162
ag162
ag162
ag162
ag162
ag162
ag162
ag162
ag162
ag162
ag162
ag162
ag162
ag162
ag162
ag162
ag162
ag162
ag162
ag162
ag162
ag162
ag162
ag162
ag162
ag162
ag162
ag162
ag162
ag162
ag162
ag162
ag162
ag162
ag162
ag162
ag162
ag162
ag162
ag162
ag162
ag162
ag162
ag162
ag162
ag162
ag162
ag162
ag162
ag162
ag162
ag162
ag162
ag162
ag162
ag162
ag162
ag162
ag162
ag162
ag162
ag162
ag162
ag162
ag162
ag162
ag162
ag162
ag162
ag162
ag162
ag162
ag162
ag162
ag162
ag162
ag162
ag162
ag162
ag162
ag162
ag162
ag162
ag162
ag162
ag162
ag162
ag162
ag162
ag162
ag162
ag162
ag162
ag162
ag162
ag162
ag162
ag162
ag162
ag162
ag162
ag162
ag162
ag162
ag162
ag162
ag162
ag162
ag162
ag162
ag162
ag162
ag162
ag162
ag162
ag162
ag162
ag162
ag162
ag162
ag162
ag162
ag162
ag162
ag162
ag162
ag162
ag162
ag162
ag162
ag162
ag162
ag162
ag162
ag162
ag162
ag162
ag162
ag162
ag162
ag162
ag162
ag162
ag162
ag162
ag162
ag162
ag162
ag162
ag162
ag162
ag162
ag162
ag162
ag162
ag162
ag162
ag162
ag162
ag162
ag162
ag162
ag162
ag162
ag162
ag162
ag162
ag162
ag162
ag162
ag162
ag162
ag162
ag162
ag162
ag162
ag162
ag162
ag162
ag162
ag162
ag162
ag162
ag162
ag162
ag162
ag162
ag162
ag162
ag162
ag162
ag162
ag162
ag162
ag162
ag162
ag162
ag162
ag162
ag162
ag162
ag162
ag162
ag162
ag162
ag162
ag162
ag162
ag162
ag162
ag162
ag162
ag162
ag162
ag162
ag162
ag162
ag162
ag162
ag162
ag162
ag162
ag162
ag162
ag162
ag162
ag162
ag162
ag162
ag162
ag162
ag162
ag162
ag162
ag162
ag162
ag162
ag162
ag162
ag162
ag162
ag162
ag162
ag162
ag162
ag162
ag162
ag162
ag162
ag162
ag162
ag162
ag162
ag162
ag162
ag162
ag162
ag162
ag162
ag162
ag162
ag162
ag162
ag162
ag162
ag162
ag162
ag162
ag162
ag162
ag162
ag162
ag162
ag162
ag162
ag162
ag162
ag162
ag162
ag162
ag162
ag162
ag162
ag162
ag162
ag162
ag162
ag162
ag162
ag162
ag162
ag162
ag162
ag162
ag162
ag162
ag162
ag162
ag162
ag162
ag162
ag162
ag162
ag162
ag162
ag162
ag162
ag162
ag162
ag162
ag162
ag162
ag162
ag162
ag162
ag162
ag162
ag162
ag162
ag162
ag162
ag162
ag162
ag162
ag162
ag162
ag162
ag162
ag162
ag162
ag162
ag162
ag162
ag162
ag162
ag162
ag162
ag162
ag162
ag162
ag162
ag162
ag162
ag162
ag162
ag162
ag162
ag162
ag162
ag162
ag162
ag162
ag162
ag162
ag162
ag162
ag162
ag162
ag162
ag162
ag162
ag162
ag162
ag162
ag162
ag162
ag162
ag162
ag162
ag162
ag162
ag162
ag162
ag162
ag162
ag162
ag162
ag162
ag162
ag162
ag162
ag162
ag162
ag162
ag162
ag162
ag162
ag162
ag162
ag162
ag162
ag162
ag162
ag162
ag162
ag162
ag162
ag162
ag162
ag162
ag162
ag162
ag162
ag162
ag162
ag162
ag162
ag162
ag162
ag162
ag162
ag162
ag162
ag162
ag162
ag162
ag162
ag162
ag162
ag162
ag162
ag162
ag162
ag162
ag162
ag162
ag162
ag162
ag162
ag162
ag162
ag162
ag162
ag162
ag162
ag162
ag162
ag162
ag162
ag162
ag162
ag162
ag162
ag162
ag162
ag162
ag162
ag162
ag162
ag162
ag162
ag162
ag162
ag162
ag162
ag162
ag162
ag162
ag162
ag162
ag162
ag162
ag162
ag162
ag162
ag162
ag162
ag162
ag162
ag162
ag162
ag162
ag162
ag162
ag162
ag162
ag162
ag162
ag162
ag162
ag162
ag162
ag162
ag162
ag162
ag162
ag162
ag162
ag162
ag162
ag162
ag162
ag162
ag162
ag162
ag162
ag162
ag162
ag162
ag162
ag162
ag162
ag162
ag162
ag162
ag162
ag162
ag162
ag162
ag162
ag162
ag162
ag162
ag162
ag162
ag162
ag162
ag162
ag162
ag162
ag162
ag162
ag162
ag162
ag162
ag162
ag162
ag162
ag162
ag162
ag162
ag162
ag162
ag162
ag162
ag162
ag162
ag162
ag162
ag162
ag162
ag162
ag162
ag162
ag162
ag162
ag162
ag162
ag162
ag162
ag162
ag162
ag162
ag162
ag162
ag162
ag162
ag162
ag162
ag162
ag162
ag162
ag162
ag162
ag162
ag162
ag162
ag162
ag162
ag162
ag162
ag162
ag162
ag162
ag162
ag162
ag162
ag162
ag162
ag162
ag162
ag162
ag162
ag162
ag162
ag162
ag162
ag162
ag162
ag162
ag162
ag162
ag162
ag162
ag162
ag162
ag162
ag162
ag162
ag162
ag162
ag162
ag162
ag162
ag162
ag162
ag162
ag162
ag162
ag162
ag162
ag162
ag162
ag162
ag162
ag162
ag162
ag162
ag162
ag162
ag162
ag162
ag162
ag162
ag162
ag162
ag162
ag162
ag162
ag162
ag162
ag162
ag162
ag162
ag162
ag162
ag162
ag162
ag162
ag162
ag162
ag162
ag162
ag162
ag162
ag162
ag162
ag162
ag162
ag162
ag162
ag162
ag162
ag162
ag162
ag162
ag162
ag162
ag162
ag162
ag162
ag162
ag162
ag162
ag162
ag162
ag162
ag162
ag162
ag162
ag162
ag162
ag162
ag162
ag162
ag162
ag162
ag162
ag162
ag162
ag162
ag162
ag162
ag162
ag162
ag162
ag162
ag162
ag162
ag162
ag162
ag162
ag162
ag162
ag162
ag162
ag162
ag162
ag162
ag162
ag162
ag162
ag162
ag162
ag162
ag162
ag162
ag162
ag162
ag162
ag162
ag162
ag162
ag162
ag162
ag162
ag162
ag162
ag162
ag162
ag162
ag162
ag162
ag162
ag162
ag162
ag162
ag162
ag162
ag162
ag162
ag162
ag162
ag162
ag162
ag162
ag162
ag162
ag162
ag162
ag162
ag162
ag162
ag162
ag162
ag162
ag162
ag162
ag162
ag162
ag162
ag162
ag162
ag162
ag162
ag162
ag162
ag162
ag162
ag162
ag162
ag162
ag162
ag162
ag162
ag162
ag162
ag162
ag162
ag162
ag162
ag162
ag162
ag162
ag162
ag162
ag162
ag162
ag162
ag162
ag162
ag162
ag162
ag162
ag162
ag162
ag162
ag162
ag162
ag162
ag162
ag162
ag162
ag162
ag162
ag162
ag162
ag162
ag162
ag162
ag162
ag162
ag162
ag162
ag162
ag162
ag162
ag162
ag162
ag162
ag162
ag162
ag162
ag162
ag162
ag162
ag162
ag162
ag162
ag162
ag162
ag162
ag162
ag162
ag162
ag162
ag162
ag162
ag162
ag162
ag162
ag162
ag162
ag162
ag162
ag162
ag162
ag162
ag162
ag162
ag162
ag162
ag162
ag162
ag162
ag162
ag162
ag162
ag162
ag162
ag162
ag162
ag162
ag162
ag162
ag162
ag162
ag162
ag162
ag162
ag162
ag162
ag162
ag162
ag162
ag162
ag162
ag162
ag162
ag162
ag162
ag162
ag162
ag162
ag162
ag162
ag162
ag162
ag162
ag162
ag162
ag162
ag162
ag162
ag162
ag162
ag162
ag162
ag162
ag162
ag162
ag162
ag162
ag162
ag162
ag162
ag162
ag162
ag162
ag162
ag162
ag162
ag162
ag162
ag162
ag162
ag162
ag162
ag162
ag162
ag162
ag162
ag162
ag162
ag162
ag162
ag162
ag162
ag162
ag162
ag162
ag162
ag162
ag162
ag162
ag162
ag162
ag162
ag162
ag162
ag162
ag162
ag162
ag162
ag162
ag162
ag162
ag162
ag162
ag162
ag162
ag162
ag162
ag162
ag162
ag162
ag162
ag162
ag162
ag162
ag162
ag162
ag162
ag162
ag162
ag162
ag162
ag162
ag162
ag162
ag162
ag162
ag162
ag162
ag162
ag162
ag162
ag162
ag162
ag162
ag162
ag162
ag162
ag162
ag162
ag162
ag162
ag162
ag162
ag162
ag162
ag162
ag162
ag162
ag162
ag162
ag162
ag162
ag162
ag162
ag162
ag162
ag162
ag162
ag162
ag162
ag162
ag162
ag162
ag162
ag162
ag162
ag162
ag162
ag162
ag162
ag162
ag162
ag162
ag162
ag162
ag162
ag162
ag162
ag162
ag162
ag162
ag162
ag162
ag162
ag162
ag162
ag162
ag162
ag162
ag162
ag162
ag162
ag162
ag162
ag162
ag162
ag162
ag162
ag162
ag162
ag162
ag162
ag162
ag162
ag162
ag162
ag162
ag162
ag162
ag162
ag162
ag162
ag162
ag162
ag162
ag162
ag162
ag162
ag162
ag162
ag162
ag162
ag162
ag162
ag162
ag162
ag162
ag162
ag162
ag162
ag162
ag162
ag162
ag162
ag162
ag162
ag162
ag162
ag162
ag162
ag162
ag162
ag162
ag162
ag162
ag162
ag162
ag162
ag162
ag162
ag162
ag162
ag162
ag162
ag162
ag162
ag162
ag162
ag162
ag162
ag162
ag162
ag162
ag162
ag162
ag162
ag162
ag162
ag162
ag162
ag162
ag162
ag162
ag162
ag162
ag162
ag162
ag162
ag162
ag162
ag162
ag162
ag162
ag162
ag162
ag162
ag162
ag162
ag162
ag162
ag162
ag162
ag162
ag162
ag162
ag162
ag162
ag162
ag162
ag162
ag162
ag162
ag162
ag162
ag162
ag162
ag162
ag162
ag162
ag162
ag162
ag162
ag162
ag162
ag162
ag162
ag162
ag162
ag162
ag162
ag162
ag162
ag162
ag162
ag162
ag162
ag162
ag162
ag162
ag162
ag162
ag162
ag162
ag162
ag162
ag162
ag162
ag162
ag162
ag162
ag162
ag162
ag162
ag162
ag162
ag162
ag162
ag162
ag162
ag162
ag162
ag162
ag162
ag162
ag162
ag162
ag162
ag162
ag162
ag162
ag162
ag162
ag162
ag162
ag162
ag162
ag162
ag162
ag162
ag162
ag162
ag162
ag162
ag162
ag162
ag162
ag162
ag162
ag162
ag162
ag162
ag162
ag162
ag162
ag162
ag162
ag162
ag162
ag162
ag162
ag162
ag162
ag162
ag162
ag162
ag162
ag162
ag162
ag162
ag162
ag162
ag162
ag162
ag162
ag162
ag162
ag162
ag162
ag162
ag162
ag162
ag162
ag162
ag162
ag162
ag162
ag162
ag162
ag162
ag162
ag162
ag162
ag162
ag162
ag162
ag162
ag162
ag162
ag162
ag162
ag162
ag162
ag162
ag162
ag162
ag162
ag162
ag162
ag162
ag162
ag162
ag162
ag162
ag162
ag162
ag162
ag162
ag162
ag162
ag162
ag162
ag162
ag162
ag162
ag162
ag162
ag162
ag162
ag162
ag162
ag162
ag162
ag162
ag162
ag162
ag162
ag162
ag162
ag162
ag162
ag162
ag162
ag162
ag162
ag162
ag162
ag162
ag162
ag162
ag162
ag162
ag162
ag162
ag162
ag162
ag162
ag162
ag162
ag162
ag162
ag162
ag162
ag162
ag162
ag162
ag162
ag162
ag162
ag162
ag162
ag162
ag162
ag162
ag162
ag162
ag162
ag162
ag162
ag162
ag162
ag162
ag162
ag162
ag162
ag162
ag162
ag162
ag162
ag162
ag162
ag162
ag162
ag162
ag162
ag162
ag162
ag162
ag162
ag162
ag162
ag162
ag162
ag162
ag162
ag162
ag162
ag162
ag162
ag162
ag162
ag162
ag162
ag162
ag162
ag162
ag162
ag162
ag162
ag162
ag162
ag162
ag162
ag162
ag162
ag162
ag162
ag162
ag162
ag162
ag162
ag162
ag162
ag162
ag162
ag162
ag162
ag162
ag162
ag162
ag162
ag162
ag162
ag162
ag162
ag162
ag162
ag162
ag162
ag162
ag162
ag162
ag162
ag162
ag162
ag162
ag162
ag162
ag162
ag162
ag162
ag162
ag162
ag162
ag162
ag162
ag162
ag162
ag162
ag162
ag162
ag162
ag162
ag162
ag162
ag162
ag162
ag162
ag162
ag162
ag162
ag162
ag162
ag162
ag162
ag162
ag162
ag162
ag162
ag162
ag162
ag162
ag162
ag162
ag162
ag162
ag162
ag162
ag162
ag162
ag162
ag162
ag162
ag162
ag162
ag162
ag162
ag162
ag162
ag162
ag162
ag162
ag162
ag162
ag162
ag162
ag162
ag162
ag162
ag162
ag162
ag162
ag162
ag162
ag162
ag162
ag162
ag162
ag162
ag162
ag162
ag162
ag162
ag162
ag162
ag162
ag162
ag162
ag162
ag162
ag162
ag162
ag162
ag162
ag162
ag162
ag162
ag162
ag162
ag162
ag162
ag162
ag162
ag162
ag162
ag162
ag162
ag162
ag162
ag162
ag162
ag162
ag162
ag162
ag162
ag162
ag162
ag162
ag162
ag162
ag162
ag162
ag162
ag162
ag162
ag162
ag162
ag162
ag162
ag162
ag162
ag162
ag162
ag162
ag162
ag162
ag162
ag162
ag162
ag162
ag162
ag162
ag162
ag162
ag162
ag162
ag162
ag162
ag162
ag162
ag162
ag162
ag162
ag162
ag162
ag162
ag162
ag162
ag162
ag162
ag162
ag162
ag162
ag162
ag162
ag162
ag162
ag162
ag162
ag162
ag162
ag162
ag162
ag162
ag162
ag162
ag162
ag162
ag162
ag162
ag162
ag162
ag162
ag162
ag162
ag162
ag162
ag162
ag162
ag162
ag162
ag162
ag162
ag162
ag162
ag162
ag162
ag162
ag162
ag162
ag162
ag162
ag162
ag162
ag162
ag162
ag162
ag162
ag162
ag162
ag162
ag162
ag162
ag162
ag162
ag162
ag162
ag162
ag162
ag162
ag162
ag162
ag162
ag162
ag162
ag162
ag162
ag162
ag162
ag162
ag162
ag162
ag162
ag162
ag162
ag162
ag162
ag162
ag162
ag162
ag162
ag162
ag162
ag162
ag162
ag162
ag162
ag162
ag162
ag162
ag162
ag162
ag162
ag162
ag162
ag162
ag162
ag162
ag162
ag162
ag162
ag162
ag162
ag162
ag162
ag162
ag162
ag162
ag162
ag162
ag162
ag162
ag162
ag162
ag162
ag162
ag162
ag162
ag162
ag162
ag162
ag162
ag162
ag162
ag162
ag162
ag162
ag162
ag162
ag162
ag162
ag162
ag162
ag162
ag162
ag162
ag162
ag162
ag162
ag162
ag162
ag162
ag162
ag162
ag162
ag162
ag162
ag162
ag162
ag162
ag162
ag162
ag162
ag162
ag162
ag162
ag162
ag162
ag162
ag162
ag162
ag162
ag162
ag162
ag162
ag162
ag162
ag162
ag162
ag162
ag162
ag162
ag162
ag162
ag162
ag162
ag162
ag162
ag162
ag162
ag162
ag162
ag162
ag162
ag162
ag162
ag162
ag162
ag162
ag162
ag162
ag162
ag162
ag162
ag162
ag162
ag162
ag162
ag162
ag162
ag162
ag162
ag162
ag162
ag162
ag162
ag162
ag162
ag162
ag162
ag162
ag162
ag162
ag162
ag162
ag162
ag162
ag162
ag162
ag162
ag162
ag162
ag162
ag162
ag162
ag162
ag162
ag162
ag162
ag162
ag162
ag162
ag162
ag162
ag162
ag162
ag162
ag162
ag162
ag162
ag162
ag162
ag162
ag162
ag162
ag162
ag162
ag162
ag162
ag162
ag162
ag162
ag162
ag162
ag162
ag162
ag162
ag162
ag162
ag162
ag162
ag162
ag162
ag162
ag162
ag162
ag162
ag162
ag162
ag162
ag162
ag162
ag162
ag162
ag162
ag162
ag162
ag162
ag162
ag162
ag162
ag162
ag162
ag162
ag162
ag162
ag162
ag162
ag162
ag162
ag162
ag162
ag162
ag162
ag162
ag162
ag162
ag162
ag162
ag162
ag162
ag162
ag162
ag162
ag162
ag162
ag162
ag162
ag162
ag162
ag162
ag162
ag162
ag162
ag162
ag162
ag162
ag162
ag162
ag162
ag162
ag162
ag162
ag162
ag162
ag162
ag162
ag162
ag162
ag162
ag162
ag162
ag162
ag162
ag162
ag162
ag162
ag162
ag162
ag162
ag162
ag162
ag162
ag162
ag162
ag162
ag162
ag162
ag162
ag162
ag162
ag162
ag162
ag162
ag162
ag162
ag162
ag162
ag162
ag162
ag162
ag162
ag162
ag162
ag162
ag162
ag162
ag162
ag162
ag162
ag162
ag162
ag162
ag162
ag162
ag162
ag162
ag162
ag162
ag162
ag162
ag162
ag162
ag162
ag162
ag162
ag162
ag162
ag162
ag162
ag162
ag162
ag162
ag162
ag162
ag162
ag162
ag162
ag162
ag162
ag162
ag162
ag162
ag162
ag162
ag162
ag162
ag162
ag162
ag162
ag162
ag162
ag162
ag162
ag162
ag162
ag162
ag162
ag162
ag162
ag162
ag162
ag162
ag162
ag162
ag162
ag162
ag162
ag162
ag162
ag162
ag162
ag162
ag162
ag162
ag162
ag162
ag162
ag162
ag162
ag162
ag162
ag162
ag162
ag162
ag162
ag162
ag162
ag162
ag162
ag162
ag162
ag162
ag162
ag162
ag162
ag162
ag162
ag162
ag162
ag162
ag162
ag162
ag162
ag162
ag162
ag162
ag162
ag162
ag162
ag162
ag162
ag162
ag162
ag162
ag162
ag162
ag162
ag162
ag162
ag162
ag162
ag162
ag162
ag162
ag162
ag162
ag162
ag162
ag162
ag162
ag162
ag162
ag162
ag162
ag162
ag162
ag162
ag162
ag162
ag162
ag162
ag162
ag162
ag162
ag162
ag162
ag162
ag162
ag162
ag162
ag162
ag162
ag162
ag162
ag162
ag162
ag162
ag162
ag162
ag162
ag162
ag162
ag162
ag162
ag162
ag162
ag162
ag162
ag162
ag162
ag162
ag162
ag162
ag162
ag162
ag162
ag162
ag162
ag162
ag162
ag162
ag162
ag162
ag162
ag162
ag162
ag162
ag162
ag162
ag162
ag162
ag162
ag162
ag162
ag162
ag162
ag162
ag162
ag162
ag162
ag162
ag162
ag162
ag162
ag162
ag162
ag162
ag162
ag162
ag162
ag162
ag162
ag162
ag162
ag162
ag162
ag162
ag162
ag162
ag162
ag162
ag162
ag162
ag162
ag162
ag162
ag162
ag162
ag162
ag162
ag162
ag162
ag162
ag162
ag162
ag162
ag162
ag162
ag162
ag162
ag162
ag162
ag162
ag162
ag162
ag162
ag162
ag162
ag162
ag162
ag162
ag162
ag162
ag162
ag162
ag162
ag162
ag162
ag162
ag162
ag162
ag162
ag162
ag162
ag162
ag162
ag162
ag162
ag162
ag162
ag162
ag162
ag162
ag162
ag162
ag162
ag162
ag162
ag162
ag162
ag162
ag162
ag162
ag162
ag162
ag162
ag162
ag162
ag162
ag162
ag162
ag162
ag162
ag162
ag162
ag162
ag162
ag162
ag162
ag162
ag162
ag162
ag162
ag162
ag162
ag162
ag162
ag162
ag162
ag162
ag162
ag162
ag162
ag162
ag162
ag162
ag162
ag162
ag162
ag162
ag162
ag162
ag162
ag162
ag162
ag162
ag162
ag162
ag162
ag162
ag162
ag162
ag162
ag162
ag162
ag162
ag162
ag162
ag162
ag162
ag162
ag162
ag162
ag162
ag162
ag162
ag162
ag162
ag162
ag162
ag162
ag162
ag162
ag162
ag162
ag162
ag162
ag162
ag162
ag162
ag162
ag162
ag162
ag162
ag162
ag162
ag162
ag162
ag162
ag162
ag162
ag162
ag162
ag162
ag162
ag162
ag162
ag162
ag162
ag162
ag162
ag162
ag162
ag162
ag162
ag162
ag162
ag162
ag162
ag162
ag162
ag162
ag162
ag162
ag162
ag162
ag162
ag162
ag162
ag162
ag162
ag162
ag162
ag162
ag162
ag162
ag162
ag162
ag162
ag162
ag162
ag162
ag162
ag162
ag162
ag162
ag162
ag162
ag162
ag162
ag162
ag162
ag162
ag162
ag162
ag162
ag162
ag162
ag162
ag162
ag162
ag162
ag162
ag162
ag162
ag162
ag162
ag162
ag162
ag162
ag162
ag162
ag162
ag162
ag162
ag162
ag162
ag162
ag162
ag162
ag162
ag162
ag162
ag162
ag162
ag162
ag162
ag162
ag162
ag162
ag162
ag162
ag162
ag162
ag162
ag162
ag162
ag162
ag162
ag162
ag162
ag162
ag162
ag162
ag162
ag162
ag162
ag162
ag162
ag162
ag162
ag162
ag162
ag162
ag162
ag162
ag162
ag162
ag162
ag162
ag162
ag162
ag162
ag162
ag162
ag162
ag162
ag162
ag162
ag162
ag162
ag162
ag162
ag162
ag162
ag162
ag162
ag162
ag162
ag162
ag162
ag162
ag162
ag162
ag162
ag162
ag162
ag162
ag162
ag162
ag162
ag162
ag162
ag162
ag162
ag162
ag162
ag162
ag162
ag162
ag162
ag162
ag162
ag162
ag162
ag162
ag162
ag162
ag162
ag162
ag162
ag162
ag162
ag162
ag162
ag162
ag162
ag162
ag162
ag162
ag162
ag162
ag162
ag162
ag162
ag162
ag162
ag162
ag162
ag162
ag162
ag162
ag162
ag162
ag162
ag162
ag162
ag162
ag162
ag162
ag162
ag162
ag162
ag162
ag162
ag162
ag162
ag162
ag162
ag162
ag162
ag162
ag162
ag162
ag162
ag162
ag162
ag162
ag162
ag162
ag162
ag162
ag162
ag162
ag162
ag162
ag162
ag162
ag162
ag162
ag162
ag162
ag162
ag162
ag162
ag162
ag162
ag162
ag162
ag162
ag162
ag162
ag162
ag162
ag162
ag162
ag162
ag162
ag162
ag162
ag162
ag162
ag162
ag162
ag162
ag162
ag162
ag162
ag162
ag162
ag162
ag162
ag162
ag162
ag162
ag162
ag162
ag162
ag162
ag162
ag162
ag162
ag162
ag162
ag162
ag162
ag162
ag162
ag162
ag162
ag162
ag162
ag162
ag162
ag162
ag162
ag162
ag162
ag162
ag162
ag162
ag162
ag162
ag162
ag162
ag162
ag162
ag162
ag162
ag162
ag162
ag162
ag162
ag162
ag162
ag162
ag162
ag162
ag162
ag162
ag162
ag162
ag162
ag162
ag162
ag162
ag162
ag162
ag162
ag162
ag162
ag162
ag162
ag162
ag162
ag162
ag162
ag162
ag162
ag162
ag162
ag162
ag162
ag162
ag162
ag162
ag162
ag162
ag162
ag162
ag162
ag162
ag162
ag162
ag162
ag162
ag162
ag162
ag162
ag162
ag162
ag162
ag162
ag162
ag162
ag162
ag162
ag162
ag162
ag162
ag162
ag162
ag162
ag162
ag162
ag162
ag162
ag162
ag162
ag162
ag162
ag162
ag162
ag162
ag162
ag162
ag162
ag162
ag162
ag162
ag162
ag162
ag162
ag162
ag162
ag162
ag162
ag162
ag162
ag162
ag162
ag162
ag162
ag162
ag162
ag162
ag162
ag162
ag162
ag162
ag162
ag162
ag162
ag162
ag162
ag162
ag162
ag162
ag162
ag162
ag162
ag162
ag162
ag162
ag162
ag162
ag162
ag162
ag162
ag162
ag162
ag162
ag162
ag162
ag162
ag162
ag162
ag162
ag162
ag162
ag162
ag162
ag162
ag162
ag162
ag162
ag162
ag162
ag162
ag162
ag162
ag162
ag162
ag162
ag162
ag162
ag162
ag162
ag162
ag162
ag162
ag162
ag162
ag162
ag162
ag162
ag162
ag162
ag162
ag162
ag162
ag162
ag162
ag162
ag162
ag162
ag162
ag162
ag162
ag162
ag162
ag162
ag162
ag162
ag162
ag162
ag162
ag162
ag162
ag162
ag162
ag162
ag162
ag162
ag162
ag162
ag162
ag162
ag162
ag162
ag162
ag162
ag162
ag162
ag162
ag162
ag162
ag162
ag162
ag162
ag162
ag162
ag162
ag162
ag162
ag162
ag162
ag162
ag162
ag162
ag162
ag162
ag162
ag162
ag162
ag162
ag162
ag162
ag162
ag162
ag162
ag162
ag162
ag162
ag162
ag162
ag162
ag162
ag162
ag162
ag162
ag162
ag162
ag162
ag162
ag162
ag162
ag162
ag162
ag162
ag162
ag162
ag162
ag162
ag162
ag162
ag162
ag162
ag162
ag162
ag162
ag162
ag162
ag162
ag162
ag162
ag162
ag162
ag162
ag162
ag162
ag162
ag162
ag162
ag162
ag162
ag162
ag162
ag162
ag162
ag162
ag162
ag162
ag162
ag162
ag162
ag162
ag162
ag162
ag162
ag162
ag162
ag162
ag162
ag162
ag162
ag162
ag162
ag162
ag162
ag162
ag162
ag162
ag162
ag162
ag162
ag162
ag162
ag162
ag162
ag162
ag162
ag162
ag162
ag162
ag162
ag162
ag162
ag162
ag162
ag162
ag162
ag162
ag162
ag162
ag162
ag162
ag162
ag162
ag162
ag162
ag162
ag162
ag162
ag162
ag162
ag162
ag162
ag162
ag162
ag162
ag162
ag162
ag162
ag162
ag162
ag162
ag162
ag162
ag162
ag162
ag162
ag162
ag162
ag162
ag162
ag162
ag162
ag162
ag162
ag162
ag162
ag162
ag162
ag162
ag162
ag162
ag162
ag162
ag162
ag162
ag162
ag162
ag162
ag162
ag162
ag162
ag162
ag162
ag162
ag162
ag162
ag162
ag162
ag162
ag162
ag162
ag162
ag162
ag162
ag162
ag162
ag162
ag162
ag162
ag162
ag162
ag162
ag162
ag162
ag162
ag162
ag162
ag162
ag162
ag162
ag162
ag162
ag162
ag162
ag162
ag162
ag162
ag162
ag162
ag162
ag162
ag162
ag162
ag162
ag162
ag162
ag162
ag162
ag162
ag162
ag162
ag162
ag162
ag162
ag162
ag162
ag162
ag162
ag162
ag162
ag162
ag162
ag162
ag162
ag162
ag162
ag162
ag162
ag162
ag162
ag162
ag162
ag162
ag162
ag162
ag162
ag162
ag162
ag162
ag162
ag162
ag162
ag162
ag162
ag162
ag162
ag162
ag162
ag162
ag162
ag162
ag162
ag162
ag162
ag162
ag162
ag162
ag162
ag162
ag162
ag162
ag162
ag162
ag162
ag162
ag162
ag162
ag162
ag162
ag162
ag162
ag162
ag162
ag162
ag162
ag162
ag162
ag162
ag162
ag162
ag162
ag162
ag162
ag162
ag162
ag162
ag162
ag162
ag162
ag162
ag162
ag162
ag162
ag162
ag162
ag162
ag162
ag162
ag162
ag162
ag162
ag162
ag162
ag162
ag162
ag162
ag162
ag162
ag162
ag162
ag162
ag162
ag162
ag162
ag162
ag162
ag162
ag162
ag162
ag162
ag162
ag162
ag162
ag162
ag162
ag162
ag162
ag162
ag162
ag162
ag162
ag162
ag162
ag162
ag162
ag162
ag162
ag162
ag162
ag162
ag162
ag162
ag162
ag162
ag162
ag162
ag162
ag162
ag162
ag162
ag162
ag162
ag162
ag162
ag162
ag162
ag162
ag162
ag162
ag162
ag162
ag162
ag162
ag162
ag162
ag162
ag162
ag162
ag162
ag162
ag162
ag162
ag162
ag162
ag162
ag162
ag162
ag162
ag162
ag162
ag162
ag162
ag162
ag162
ag162
ag162
ag162
ag162
ag162
ag162
ag162
ag162
ag162
ag162
ag162
ag162
ag162
ag162
ag162
ag162
ag162
ag162
ag162
ag162
ag162
ag162
ag162
ag162
ag162
ag162
ag162
ag162
ag162
ag162
ag162
ag162
ag162
ag162
ag162
ag162
ag162
ag162
ag162
ag162
ag162
ag162
ag162
ag162
ag162
ag162
ag162
ag162
ag162
ag162
ag162
ag162
ag162
ag162
ag162
ag162
ag162
ag162
ag162
ag162
ag162
ag162
ag162
ag162
ag162
ag162
ag162
ag162
ag162
ag162
ag162
ag162
ag162
ag162
ag162
ag162
ag162
ag162
ag162
ag162
ag162
ag162
ag162
ag162
ag162
ag162
ag162
ag162
ag162
ag162
ag162
ag162
ag162
ag162
ag162
ag162
ag162
ag162
ag162
ag162
ag162
ag162
ag162
ag162
ag162
ag162
ag162
ag162
ag162
ag162
ag162
ag162
ag162
ag162
ag162
ag162
ag162
ag162
ag162
ag162
ag162
ag162
ag162
ag162
ag162
ag162
ag162
ag162
ag162
ag162
ag162
ag162
ag162
ag162
ag162
ag162
ag162
ag162
ag162
ag162
ag162
ag162
ag162
ag162
ag162
ag162
ag162
ag162
ag162
ag162
ag162
ag162
ag162
ag162
ag162
ag162
ag162
ag162
ag162
ag162
ag162
ag162
ag162
ag162
ag162
ag162
ag162
ag162
ag162
ag162
ag162
ag162
ag162
ag162
ag162
ag162
ag162
ag162
ag162
ag162
ag162
ag162
ag162
ag162
ag162
ag162
ag162
ag162
ag162
ag162
ag162
ag162
ag162
ag162
ag162
ag162
ag162
ag162
ag162
ag162
ag162
ag162
ag162
ag162
ag162
ag162
ag162
ag162
ag162
ag162
ag162
ag162
ag162
ag162
ag162
ag162
ag162
ag162
ag162
ag162
ag162
ag162
ag162
ag162
ag162
ag162
ag162
ag162
ag162
ag162
ag162
ag162
ag162
ag162
ag162
ag162
ag162
ag162
ag162
ag162
ag162
ag162
ag162
ag162
ag162
ag162
ag162
ag162
ag162
ag162
ag162
ag162
ag162
ag162
ag162
ag162
ag162
ag162
ag162
ag162
ag162
ag162
ag162
ag162
ag162
ag162
ag162
ag162
ag162
ag162
ag162
ag162
ag162
ag162
ag162
ag162
ag162
ag162
ag162
ag162
ag162
ag162
ag162
ag162
ag162
ag162
ag162
ag162
ag162
ag162
ag162
ag162
ag162
ag162
ag162
ag162
ag162
ag162
ag162
ag162
ag162
ag162
ag162
ag162
ag162
ag162
ag162
ag162
ag162
ag162
ag162
ag162
ag162
ag162
ag162
ag162
ag162
ag162
ag162
ag162
ag162
ag162
ag162
ag162
ag162
ag162
ag162
ag162
ag162
ag162
ag162
ag162
ag162
ag162
ag162
ag162
ag162
ag162
ag162
ag162
ag162
ag162
ag162
ag162
ag162
ag162
ag162
ag162
ag162
ag162
ag162
ag162
ag162
ag162
ag162
ag162
ag162
ag162
ag162
ag162
ag162
ag162
ag162
ag162
ag162
ag162
ag162
ag162
ag162
ag162
ag162
ag162
ag162
ag162
ag162
ag162
ag162
ag162
ag162
ag162
ag162
ag162
ag162
ag162
ag162
ag162
ag162
ag162
ag162
ag162
ag162
ag162
ag162
ag162
ag162
ag162
ag162
ag162
ag162
ag162
ag162
ag162
ag162
ag162
ag162
ag162
ag162
ag162
ag162
ag162
ag162
ag162
ag162
ag162
ag162
ag162
ag162
ag162
ag162
ag162
ag162
ag162
ag162
ag162
ag162
ag162
ag162
ag162
ag162
ag162
ag162
ag162
ag162
ag162
ag162
ag162
ag162
ag162
ag162
ag162
ag162
ag162
ag162
ag162
ag162
ag162
ag162
ag162
ag162
ag162
ag162
ag162
ag162
ag162
ag162
ag162
ag162
ag162
ag162
ag162
ag162
ag162
ag162
ag162
ag162
ag162
ag162
ag162
ag162
ag162
ag162
ag162
ag162
ag162
ag162
ag162
ag162
ag162
ag162
ag162
ag162
ag162
ag162
ag162
ag162
ag162
ag162
ag162
ag162
ag162
ag162
ag162
ag162
ag162
ag162
ag162
ag162
ag162
ag162
ag162
ag162
ag162
ag162
ag162
ag162
ag162
ag162
ag162
ag162
ag162
ag162
ag162
ag162
ag162
ag162
ag162
ag162
ag162
ag162
ag162
ag162
ag162
ag162
ag162
ag162
ag162
ag162
ag162
ag162
ag162
ag162
ag162
ag162
ag162
ag162
ag162
ag162
ag162
ag162
ag162
ag162
ag162
ag162
ag162
ag162
ag162
ag162
ag162
ag162
ag162
ag162
ag162
ag162
ag162
ag162
ag162
ag162
ag162
ag162
ag162
ag162
ag162
ag162
ag162
ag162
ag162
ag162
ag162
ag162
ag162
ag162
ag162
ag162
ag162
ag162
ag162
ag162
ag162
ag162
ag162
ag162
ag162
ag162
ag162
ag162
ag162
ag162
ag162
ag162
ag162
ag162
ag162
ag162
ag162
ag162
ag162
ag162
ag162
ag162
ag162
ag162
ag162
ag162
ag162
ag162
ag162
ag162
ag162
ag162
ag162
ag162
ag162
ag162
ag162
ag162
ag162
ag162
ag162
ag162
ag162
ag162
ag162
ag162
ag162
ag162
ag162
ag162
ag162
ag162
ag162
ag162
ag162
ag162
ag162
ag162
ag162
ag162
ag162
ag162
ag162
ag162
ag162
ag162
ag162
ag162
ag162
ag162
ag162
ag162
ag162
ag162
ag162
ag162
ag162
ag162
ag162
ag162
ag162
ag162
ag162
ag162
ag162
ag162
ag162
ag162
ag162
ag162
ag162
ag162
ag162
ag162
ag162
ag162
ag162
ag162
ag162
ag162
ag162
ag162
ag162
ag162
ag162
ag162
ag162
ag162
ag162
ag162
ag162
ag162
ag162
ag162
ag162
ag162
ag162
ag162
ag162
ag162
ag162
ag162
ag162
ag162
ag162
ag162
ag162
ag162
ag162
ag162
ag162
ag162
ag162
ag162
ag162
ag162
ag162
ag162
ag162
ag162
ag162
ag162
ag162
ag162
ag162
ag162
ag162
ag162
ag162
ag162
ag162
ag162
ag162
ag162
ag162
ag162
ag162
ag162
ag162
ag162
ag162
ag162
ag162
ag162
ag162
ag162
ag162
ag162
ag162
ag162
ag162
ag162
ag162
ag162
ag162
ag162
ag162
ag162
ag162
ag162
ag162
ag162
ag162
ag162
ag162
ag162
ag162
ag162
ag162
ag162
ag162
ag162
ag162
ag162
ag162
ag162
ag162
ag162
ag162
ag162
ag162
ag162
ag162
ag162
ag162
ag162
ag162
ag162
ag162
ag162
ag162
ag162
ag162
ag162
ag162
ag162
ag162
ag162
ag162
ag162
ag162
ag162
ag162
ag162
ag162
ag162
ag162
ag162
ag162
ag162
ag162
ag162
ag162
ag162
ag162
ag162
ag162
ag162
ag162
ag162
ag162
ag162
ag162
ag162
ag162
ag162
ag162
ag162
ag162
ag162
ag162
ag162
ag162
ag162
ag162
ag162
ag162
ag162
ag162
ag162
ag162
ag162
ag162
ag162
ag162
ag162
ag162
ag162
ag162
ag162
ag162
ag162
ag162
ag162
ag162
ag162
ag162
ag162
ag162
ag162
ag162
ag162
ag162
ag162
ag162
ag162
ag162
ag162
ag162
ag162
ag162
ag162
ag162
ag162
ag162
ag162
ag162
ag162
ag162
ag162
ag162
ag162
ag162
ag162
ag162
ag162
ag162
ag162
ag162
ag162
ag162
ag162
ag162
ag162
ag162
ag162
ag162
ag162
ag162
ag162
ag162
ag162
ag162
ag162
ag162
ag162
ag162
ag162
ag162
ag162
ag162
ag162
ag162
ag162
ag162
ag162
ag162
ag162
ag162
ag162
ag162
ag162
ag162
ag162
ag162
ag162
ag162
ag162
ag162
ag162
ag162
ag162
ag162
ag162
ag162
ag162
ag162
ag162
ag162
ag162
ag162
ag162
ag162
ag162
ag162
ag162
ag162
ag162
ag162
ag162
ag162
ag162
ag162
ag162
ag162
ag162
ag162
ag162
ag162
ag162
ag162
ag162
ag162
ag162
ag162
ag162
ag162
ag162
ag162
ag162
ag162
ag162
ag162
ag162
ag162
ag162
ag162
ag162
ag162
ag162
ag162
ag162
ag162
ag162
ag162
ag162
ag162
ag162
ag162
ag162
ag162
ag162
ag162
ag162
ag162
ag162
ag162
ag162
ag162
ag162
ag162
ag162
ag162
ag162
ag162
ag162
ag162
ag162
ag162
ag162
ag162
ag162
ag162
ag162
ag162
ag162
ag162
ag162
ag162
ag162
ag162
ag162
ag162
ag162
ag162
ag162
ag162
ag162
ag162
ag162
ag162
ag162
ag162
ag162
ag162
ag162
ag162
ag162
ag162
ag162
ag162
ag162
ag162
ag162
ag162
ag162
ag162
ag162
ag162
ag162
ag162
ag162
ag162
ag162
ag162
ag162
ag162
ag162
ag162
ag162
ag162
ag162
ag162
ag162
ag162
ag162
ag162
ag162
ag162
ag162
ag162
ag162
ag162
ag162
ag162
ag162
ag162
ag162
ag162
ag162
ag162
ag162
ag162
ag162
ag162
ag162
ag162
ag162
ag162
ag162
ag162
ag162
ag162
ag162
ag162
ag162
ag162
ag162
ag162
ag162
ag162
ag162
ag162
ag162
ag162
ag162
ag162
ag162
ag162
ag162
ag162
ag162
ag162
ag162
ag162
ag162
ag162
ag162
ag162
ag162
ag162
ag162
ag162
ag162
ag162
ag162
ag162
ag162
ag162
ag162
ag162
ag162
ag162
ag162
ag162
ag162
ag162
ag162
ag162
ag162
ag162
ag162
ag162
ag162
ag162
ag162
ag162
ag162
ag162
ag162
ag162
ag162
ag162
ag162
ag162
ag162
ag162
ag162
ag162
ag162
ag162
ag162
ag162
ag162
ag162
ag162
ag162
ag162
ag162
ag162
ag162
ag162
ag162
ag162
ag162
ag162
ag162
ag162
ag162
ag162
ag162
ag162
ag162
ag162
ag162
ag162
ag162
ag162
ag162
ag162
ag162
ag162
ag162
ag162
ag162
ag162
ag162
ag162
ag162
ag162
ag162
ag162
ag162
ag162
ag162
ag162
ag162
ag162
ag162
ag162
ag162
ag162
ag162
ag162
ag162
ag162
ag162
ag162
ag162
ag162
ag162
ag162
ag162
ag162
ag162
ag162
ag162
ag162
ag162
ag162
ag162
ag162
ag162
ag162
ag162
ag162
ag162
ag162
ag162
ag162
ag162
ag162
ag162
ag162
ag162
ag162
ag162
ag162
ag162
ag162
ag162
ag162
ag162
ag162
ag162
ag162
ag162
ag162
ag162
ag162
ag162
ag162
ag162
ag162
ag162
ag162
ag162
ag162
ag162
ag162
ag162
ag162
ag162
ag162
ag162
ag162
ag162
ag162
ag162
ag162
ag162
ag162
ag162
ag162
ag162
ag162
ag162
ag162
ag162
ag162
ag162
ag162
ag162
ag162
ag162
ag162
ag162
ag162
ag162
ag162
ag162
ag162
ag162
ag162
ag162
ag162
ag162
ag162
ag162
ag162
ag162
ag162
ag162
ag162
ag162
ag162
ag162
ag162
ag162
ag162
ag162
ag162
ag162
ag162
ag162
ag162
ag162
ag162
ag162
ag162
ag162
ag162
ag162
ag162
ag162
ag162
ag162
ag162
ag162
ag162
ag162
ag162
ag162
ag162
ag162
ag162
ag162
ag162
ag162
ag162
ag162
ag162
ag162
ag162
ag162
ag162
ag162
ag162
ag162
ag162
ag162
ag162
ag162
ag162
ag162
ag162
ag162
ag162
ag162
ag162
ag162
ag162
ag162
ag162
ag162
ag162
ag162
ag162
ag162
ag162
ag162
ag162
ag162
ag162
ag162
ag162
ag162
ag162
ag162
ag162
ag162
ag162
ag162
ag162
ag162
ag162
ag162
ag162
ag162
ag162
ag162
ag162
ag162
ag162
ag162
ag162
ag162
ag162
ag162
ag162
ag162
ag162
ag162
ag162
ag162
ag162
ag162
ag162
ag162
ag162
ag162
ag162
ag162
ag162
ag162
ag162
ag162
ag162
ag162
ag162
ag162
ag162
ag162
ag162
ag162
ag162
ag162
ag162
ag162
ag162
ag162
ag162
ag162
ag162
ag162
ag162
ag162
ag162
ag162
ag162
ag162
ag162
ag162
ag162
ag162
ag162
ag162
ag162
ag162
ag162
ag162
ag162
ag162
ag162
ag162
ag162
ag162
ag162
ag162
ag162
ag162
ag162
ag162
ag162
ag162
ag162
ag162
ag162
ag162
ag162
ag162
ag162
ag162
ag162
ag162
ag162
ag162
ag162
ag162
ag162
ag162
ag162
ag162
ag162
ag162
ag162
ag162
ag162
ag162
ag162
ag162
ag162
ag162
ag162
ag162
ag162
ag162
ag162
ag162
ag162
ag162
ag162
ag162
ag162
ag162
ag162
ag162
ag162
ag162
ag162
ag162
ag162
ag162
ag162
ag162
ag162
ag162
ag162
ag162
ag162
ag162
ag162
ag162
ag162
ag162
ag162
ag162
ag162
ag162
ag162
ag162
ag162
ag162
ag162
ag162
ag162
ag162
ag162
ag162
ag162
ag162
ag162
ag162
ag162
ag162
ag162
ag162
ag162
ag162
ag162
ag162
ag162
ag162
ag162
ag162
ag162
ag162
ag162
ag162
ag162
ag162
ag162
ag162
ag162
ag162
ag162
ag162
ag162
ag162
ag162
ag162
ag162
ag162
ag162
ag162
ag162
ag162
ag162
ag162
ag162
ag162
ag162
ag162
ag162
ag162
ag162
ag162
ag162
ag162
ag162
ag162
ag162
ag162
ag162
ag162
ag162
ag162
ag162
ag162
ag162
ag162
ag162
ag162
ag162
ag162
ag162
ag162
ag162
ag162
ag162
ag162
ag162
ag162
ag162
ag162
ag162
ag162
ag162
ag162
ag162
ag162
ag162
ag162
ag162
ag162
ag162
ag162
ag162
ag162
ag162
ag162
ag162
ag162
ag162
ag162
ag162
ag162
ag162
ag162
ag162
ag162
ag162
ag162
ag162
ag162
ag162
ag162
ag162
ag162
ag162
ag162
ag162
ag162
ag162
ag162
ag162
ag162
ag162
ag162
ag162
ag162
ag162
ag162
ag162
ag162
ag162
ag162
ag162
ag162
ag162
ag162
ag162
ag162
ag162
ag162
ag162
ag162
ag162
ag162
ag162
ag162
ag162
ag162
ag162
ag162
ag162
ag162
ag162
ag162
ag162
ag162
ag162
ag162
ag162
ag162
ag162
ag162
ag162
ag162
ag162
ag162
ag162
ag162
ag162
ag162
ag162
ag162
ag162
ag162
ag162
ag162
ag162
ag162
ag162
ag162
ag162
ag162
ag162
ag162
ag162
ag162
ag162
ag162
ag162
ag162
ag162
ag162
ag162
ag162
ag162
ag162
ag162
ag162
ag162
ag162
ag162
ag162
ag162
ag162
ag162
ag162
ag162
ag162
ag162
ag162
ag162
ag162
ag162
ag162
ag162
ag162
ag162
ag162
ag162
ag162
ag162
ag162
ag162
ag162
ag162
ag162
ag162
ag162
ag162
ag162
ag162
ag162
ag162
ag162
ag162
ag162
ag162
ag162
ag162
ag162
ag162
ag162
ag162
ag162
ag162
ag162
ag162
ag162
ag162
ag162
ag162
ag162
ag162
ag162
ag162
ag162
ag162
ag162
ag162
ag162
ag162
ag162
ag162
ag162
ag162
ag162
ag162
ag162
ag162
ag162
ag162
ag162
ag162
ag162
ag162
ag162
ag162
ag162
ag162
ag162
ag162
ag162
ag162
ag162
ag162
ag162
ag162
ag162
ag162
ag162
ag162
ag162
ag162
ag162
ag162
ag162
ag162
ag162
ag162
ag162
ag162
ag162
ag162
ag162
ag162
ag162
ag162
ag162
ag162
ag162
ag162
ag162
ag162
ag162
ag162
ag162
ag162
ag162
ag162
ag162
ag162
ag162
ag162
ag162
ag162
ag162
ag162
ag162
ag162
ag162
ag162
ag162
ag162
ag162
ag162
ag162
ag162
ag162
ag162
ag162
ag162
ag162
ag162
ag162
ag162
ag162
ag162
ag162
ag162
ag162
ag162
ag162
ag162
ag162
ag162
ag162
ag162
ag162
ag162
ag162
ag162
ag162
ag162
ag162
ag162
ag162
ag162
ag162
ag162
ag162
ag162
ag162
ag162
ag162
ag162
ag162
ag162
ag162
ag162
ag162
ag162
ag162
ag162
ag162
ag162
ag162
ag162
ag162
ag162
ag162
ag162
ag162
ag162
ag162
ag162
ag162
ag162
ag162
ag162
ag162
ag162
ag162
ag162
ag162
ag162
ag162
ag162
ag162
ag162
ag162
ag162
ag162
ag162
ag162
ag162
ag162
ag162
ag162
ag162
ag162
ag162
ag162
ag162
ag162
ag162
ag162
ag162
ag162
ag162
ag162
ag162
ag162
ag162
ag162
ag162
ag162
ag162
ag162
ag162
ag162
ag162
ag162
ag162
ag162
ag162
ag162
ag162
ag162
ag162
ag162
ag162
ag162
ag162
ag162
ag162
ag162
ag162
ag162
ag162
ag162
ag162
ag162
ag162
ag162
ag162
ag162
ag162
ag162
ag162
ag162
ag162
ag162
ag162
ag162
ag162
ag162
ag162
ag162
ag162
ag162
ag162
ag162
ag162
ag162
ag162
ag162
ag162
ag162
ag162
ag162
ag162
ag162
ag162
ag162
ag162
ag162
ag162
ag162
ag162
ag162
ag162
ag162
ag162
ag162
ag162
ag162
ag162
ag162
ag162
ag162
ag162
ag162
ag162
ag162
ag162
ag162
ag162
ag162
ag162
ag162
ag162
ag162
ag162
ag162
ag162
ag162
ag162
ag162
ag162
ag162
ag162
ag162
ag162
ag162
ag162
ag162
ag162
ag162
ag162
ag162
ag162
ag162
ag162
ag162
ag162
ag162
ag162
ag162
ag162
ag162
ag162
ag162
ag162
ag162
ag162
ag162
ag162
ag162
ag162
ag162
ag162
ag162
ag162
ag162
ag162
ag162
ag162
ag162
ag162
ag162
ag162
ag162
ag162
ag162
ag162
ag162
ag162
ag162
ag162
ag162
ag162
ag162
ag162
ag162
ag162
ag162
ag162
ag162
ag162
ag162
ag162
ag162
ag162
ag162
ag162
ag162
ag162
ag162
ag162
ag162
ag162
ag162
ag162
ag162
ag162
ag162
ag162
ag162
ag162
ag162
ag162
ag162
ag162
ag162
ag162
ag162
ag162
ag162
ag162
ag162
ag162
ag162
ag162
ag162
ag162
ag162
ag162
ag162
ag162
ag162
ag162
ag162
ag162
ag162
ag162
ag162
ag162
ag162
ag162
ag162
ag162
ag162
ag162
ag162
ag162
ag162
ag162
ag162
ag162
ag162
ag162
ag162
ag162
ag162
ag162
ag162
ag162
ag162
ag162
ag162
ag162
ag162
ag162
ag162
ag162
ag162
ag162
ag162
ag162
ag162
ag162
ag162
ag162
ag162
ag162
ag162
ag162
ag162
ag162
ag162
ag162
ag162
ag162
ag162
ag162
ag162
ag162
ag162
ag162
ag162
ag162
ag162
ag162
ag162
ag162
ag162
ag162
ag162
ag162
ag162
ag162
ag162
ag162
ag162
ag162
ag162
ag162
ag162
ag162
ag162
ag162
ag162
ag162
ag162
ag162
ag162
ag162
ag162
ag162
ag162
ag162
ag162
ag162
ag162
ag162
ag162
ag162
ag162
ag162
ag162
ag162
ag162
ag162
ag162
ag162
ag162
ag162
ag162
ag162
ag162
ag162
ag162
ag162
ag162
ag162
ag162
ag162
ag162
ag162
ag162
ag162
ag162
ag162
ag162
ag162
ag162
ag162
ag162
ag162
ag162
ag162
ag162
ag162
ag162
ag162
ag162
ag162
ag162
ag162
ag162
ag162
ag162
ag162
ag162
ag162
ag162
ag162
ag162
ag162
ag162
ag162
ag162
ag162
ag162
ag162
ag162
ag162
ag162
ag162
ag162
ag162
ag162
ag162
ag162
ag162
ag162
ag162
ag162
ag162
ag162
ag162
ag162
ag162
ag162
ag162
ag162
ag162
ag162
ag162
ag162
ag162
ag162
ag162
ag162
ag162
ag162
ag162
ag162
ag162
ag162
ag162
ag162
ag162
ag162
ag162
ag162
ag162
ag162
ag162
ag162
ag162
ag162
ag162
ag162
ag162
ag162
ag162
ag162
ag162
ag162
ag162
ag162
ag162
ag162
ag162
ag162
ag162
ag162
ag162
ag162
ag162
ag162
ag162
ag162
ag162
ag162
ag162
ag162
ag162
ag162
ag162
ag162
ag162
ag162
ag162
ag162
ag162
ag162
ag162
ag162
ag162
ag162
ag162
ag162
ag162
ag162
ag162
ag162
ag162
ag162
ag162
ag162
ag162
ag162
ag162
ag162
ag162
ag162
ag162
ag162
ag162
ag162
ag162
ag162
ag162
ag162
ag162
ag162
ag162
ag162
ag162
ag162
ag162
ag162
ag162
ag162
ag162
ag162
ag162
ag162
ag162
ag162
ag162
ag162
ag162
ag162
ag162
ag162
ag162
ag162
ag162
ag162
ag162
ag162
ag162
ag162
ag162
ag162
ag162
ag162
ag162
ag162
ag162
ag162
ag162
ag162
ag162
ag162
ag162
ag162
ag162
ag162
ag162
ag162
ag162
ag162
ag162
ag162
ag162
ag162
ag162
ag162
ag162
ag162
ag162
ag162
ag162
ag162
ag162
ag162
ag162
ag162
ag162
ag162
ag162
ag162
ag162
ag162
ag162
ag162
ag162
ag162
ag162
ag162
ag162
ag162
ag162
ag162
ag162
ag162
ag162
ag162
ag162
ag162
ag162
ag162
ag162
ag162
ag162
ag162
ag162
ag162
ag162
ag162
ag162
ag162
ag162
ag162
ag162
ag162
ag162
ag162
ag162
ag162
ag162
ag162
ag162
ag162
ag162
ag162
ag162
ag162
ag162
ag162
ag162
ag162
ag162
ag162
ag162
ag162
ag162
ag162
ag162
ag162
ag162
ag162
ag162
ag162
ag162
ag162
ag162
ag162
ag162
ag162
ag162
ag162
ag162
ag162
ag162
ag162
ag162
ag162
ag162
ag162
ag162
ag162
ag162
ag162
ag162
ag162
ag162
ag162
ag162
ag162
ag162
ag162
ag162
ag162
ag162
ag162
ag162
ag162
ag162
ag162
ag162
ag162
ag162
ag162
ag162
ag162
ag162
ag162
ag162
ag162
ag162
ag162
ag162
ag162
ag162
ag162
ag162
ag162
ag162
ag162
ag162
ag162
ag162
ag162
ag162
ag162
ag162
ag162
ag162
ag162
ag162
ag162
ag162
ag162
ag162
ag162
ag162
ag162
ag162
ag162
ag162
ag162
ag162
ag162
ag162
ag162
ag162
ag162
ag162
ag162
ag162
ag162
ag162
ag162
ag162
ag162
ag162
ag162
ag162
ag162
ag162
ag162
ag162
ag162
ag162
ag162
ag162
ag162
ag162
ag162
ag162
ag162
ag162
ag162
ag162
ag162
ag162
ag162
ag162
ag162
ag162
ag162
ag162
ag162
ag162
ag162
ag162
ag162
ag162
ag162
ag162
ag162
ag162
ag162
ag162
ag162
ag162
ag162
ag162
ag162
ag162
ag162
ag162
ag162
ag162
ag162
ag162
ag162
ag162
ag162
ag162
ag162
ag162
ag162
ag162
ag162
ag162
ag162
ag162
ag162
ag162
ag162
ag162
ag162
ag162
ag162
ag162
ag162
ag162
ag162
ag162
ag162
ag162
ag162
ag162
ag162
ag162
ag162
ag162
ag162
ag162
ag162
ag162
ag162
ag162
ag162
ag162
ag162
ag162
ag162
ag162
ag162
ag162
ag162
ag162
ag162
ag162
ag162
ag162
ag162
ag162
ag162
ag162
ag162
ag162
ag162
ag162
ag162
ag162
ag162
ag162
ag162
ag162
ag162
ag162
ag162
ag162
ag162
ag162
ag162
ag162
ag162
ag162
ag162
ag162
ag162
ag162
ag162
ag162
ag162
ag162
ag162
ag162
ag162
ag162
ag162
ag162
ag162
ag162
ag162
ag162
ag162
ag162
ag162
ag162
ag162
ag162
ag162
ag162
ag162
ag162
ag162
ag162
ag162
ag162
ag162
ag162
ag162
ag162
ag162
ag162
ag162
ag162
ag162
ag162
ag162
ag162
ag162
ag162
ag162
ag162
ag162
ag162
ag162
ag162
ag162
ag162
ag162
ag162
ag162
ag162
ag162
ag162
ag162
ag162
ag162
ag162
ag162
ag162
ag162
ag162
ag162
ag162
ag162
ag162
ag162
ag162
ag162
ag162
ag162
ag162
ag162
ag162
ag162
ag162
ag162
ag162
ag162
ag162
ag162
ag162
ag162
ag162
ag162
ag162
ag162
ag162
ag162
ag162
ag162
ag162
ag162
ag162
ag162
ag162
ag162
ag162
ag162
ag162
ag162
ag162
ag162
ag162
ag162
ag162
ag162
ag162
ag162
ag162
ag162
ag162
ag162
ag162
ag162
ag162
ag162
ag162
ag162
ag162
ag162
ag162
ag162
ag162
ag162
ag162
ag162
ag162
ag162
ag162
ag162
ag162
ag162
ag162
ag162
ag162
ag162
ag162
ag162
ag162
ag162
ag162
ag162
ag162
ag162
ag162
ag162
ag162
ag162
ag162
ag162
ag162
ag162
ag162
ag162
ag162
ag162
ag162
ag162
ag162
ag162
ag162
ag162
ag162
ag162
ag162
ag162
ag162
ag162
ag162
ag162
ag162
ag162
ag162
ag162
ag162
ag162
ag162
ag162
ag162
ag162
ag162
ag162
ag162
ag162
ag162
ag162
ag162
ag162
ag162
ag162
ag162
ag162
ag162
ag162
ag162
ag162
ag162
ag162
ag162
ag162
ag162
ag162
ag162
ag162
ag162
ag162
ag162
ag162
ag162
ag162
ag162
ag162
ag162
ag162
ag162
ag162
ag162
ag162
ag162
ag162
ag162
ag162
ag162
ag162
ag162
ag162
ag162
ag162
ag162
ag162
ag162
ag162
ag162
ag162
ag162
ag162
ag162
ag162
ag162
ag162
ag162
ag162
ag162
ag162
ag162
ag162
ag162
ag162
ag162
ag162
ag162
ag162
ag162
ag162
ag162
ag162
ag162
ag162
ag162
ag162
ag162
ag162
ag162
ag162
ag162
ag162
ag162
ag162
ag162
ag162
ag162
ag162
ag162
ag162
ag162
ag162
ag162
ag162
ag162
ag162
ag162
ag162
ag162
ag162
ag162
ag162
ag162
ag162
ag162
ag162
ag162
ag162
ag162
ag162
ag162
ag162
ag162
ag162
ag162
ag162
ag162
ag162
ag162
ag162
ag162
ag162
ag162
ag162
ag162
ag162
ag162
ag162
ag162
ag162
ag162
ag162
ag162
ag162
ag162
ag162
ag162
ag162
ag162
ag162
ag162
ag162
ag162
ag162
ag162
ag162
ag162
ag162
ag162
ag162
ag162
ag162
ag162
ag162
ag162
ag162
ag162
ag162
ag162
ag162
ag162
ag162
ag162
ag162
ag162
ag162
ag162
ag162
ag162
ag162
ag162
ag162
ag162
ag162
ag162
ag162
ag162
ag162
ag162
ag162
ag162
ag162
ag162
ag162
ag162
ag162
ag162
ag162
ag162
ag162
ag162
ag162
ag162
ag162
ag162
ag162
ag162
ag162
ag162
ag162
ag162
ag162
ag162
ag162
ag162
ag162
ag162
ag162
ag162
ag162
ag162
ag162
ag162
ag162
ag162
ag162
ag162
ag162
ag162
ag162
ag162
ag162
ag162
ag162
ag162
ag162
ag162
ag162
ag162
ag162
ag162
ag162
ag162
ag162
ag162
ag162
ag162
ag162
ag162
ag162
ag162
ag162
ag162
ag162
ag162
ag162
ag162
ag162
ag162
ag162
ag162
ag162
ag162
ag162
ag162
ag162
ag162
ag162
ag162
ag162
ag162
ag162
ag162
ag162
ag162
ag162
ag162
ag162
ag162
ag162
ag162
ag162
ag162
ag162
ag162
ag162
ag162
ag162
ag162
ag162
ag162
ag162
ag162
ag162
ag162
ag162
ag162
ag162
ag162
ag162
ag162
ag162
ag162
ag162
ag162
ag162
ag162
ag162
ag162
ag162
ag162
ag162
ag162
ag162
ag162
ag162
ag162
ag162
ag162
ag162
ag162
ag162
ag162
ag162
ag162
ag162
ag162
ag162
ag162
ag162
ag162
ag162
ag162
ag162
ag162
ag162
ag162
ag162
ag162
ag162
ag162
ag162
ag162
ag162
ag162
ag162
ag162
ag162
ag162
ag162
ag162
ag162
ag162
ag162
ag162
ag162
ag162
ag162
ag162
ag162
ag162
ag162
ag162
ag162
ag162
ag162
ag162
ag162
ag162
ag162
ag162
ag162
ag162
ag162
ag162
ag162
ag162
ag162
ag162
ag162
ag162
ag162
ag162
ag162
ag162
ag162
ag162
ag162
ag162
ag162
ag162
ag162
ag162
ag162
ag162
ag162
ag162
ag162
ag162
ag162
ag162
ag162
ag162
ag162
ag162
ag162
ag162
ag162
ag162
ag162
ag162
ag162
ag162
ag162
ag162
ag162
ag162
ag162
ag162
ag162
ag162
ag162
ag162
ag162
ag162
ag162
ag162
ag162
ag162
ag162
ag162
ag162
ag162
ag162
ag162
ag162
ag162
ag162
ag162
ag162
ag162
ag162
ag162
ag162
ag162
ag162
ag162
ag162
ag162
ag162
ag162
ag162
ag162
ag162
ag162
ag162
ag162
ag162
ag162
ag162
ag162
ag162
ag162
ag162
ag162
ag162
ag162
ag162
ag162
ag162
ag162
ag162
ag162
ag162
ag162
ag162
ag162
ag162
ag162
ag162
ag162
ag162
ag162
ag162
ag162
ag162
ag162
ag162
ag162
ag162
ag162
ag162
ag162
ag162
ag162
ag162
ag162
ag162
ag162
ag162
ag162
ag162
ag162
ag162
ag162
ag162
ag162
ag162
ag162
ag162
ag162
ag162
ag162
ag162
ag162
ag162
ag162
ag162
ag162
ag162
ag162
ag162
ag162
ag162
ag162
ag162
ag162
ag162
ag162
ag162
ag162
ag162
ag162
ag162
ag162
ag162
ag162
ag162
ag162
ag162
ag162
ag162
ag162
ag162
ag162
ag162
ag162
ag162
ag162
ag162
ag162
ag162
ag162
ag162
ag162
ag162
ag162
ag162
ag162
ag162
ag162
ag162
ag162
ag162
ag162
ag162
ag162
ag162
ag162
ag162
ag162
ag162
ag162
ag162
ag162
ag162
ag162
ag162
ag162
ag162
ag162
ag162
ag162
ag162
ag162
ag162
ag162
ag162
ag162
ag162
ag162
ag162
ag162
ag162
ag162
ag162
ag162
ag162
ag162
ag162
ag162
ag162
ag162
ag162
ag162
ag162
ag162
ag162
ag162
ag162
ag162
ag162
ag162
ag162
ag162
ag162
ag162
ag162
ag162
ag162
ag162
ag162
ag162
ag162
ag162
ag162
ag162
ag162
ag162
ag162
ag162
ag162
ag162
ag162
ag162
ag162
ag162
ag162
ag162
ag162
ag162
ag162
ag162
ag162
ag162
ag162
ag162
ag162
ag162
ag162
ag162
ag162
ag162
ag162
ag162
ag162
ag162
ag162
ag162
ag162
ag162
ag162
ag162
ag162
ag162
ag162
ag162
ag162
ag162
ag162
ag162
ag162
ag162
ag162
ag162
ag162
ag162
ag162
ag162
ag162
ag162
ag162
ag162
ag162
ag162
ag162
ag162
ag162
ag162
ag162
ag162
ag162
ag162
ag162
ag162
ag162
ag162
ag162
ag162
ag162
ag162
ag162
ag162
ag162
ag162
ag162
ag162
ag162
ag162
ag162
ag162
ag162
ag162
ag162
ag162
ag162
ag162
ag162
ag162
ag162
ag162
ag162
ag162
ag162
ag162
ag162
ag162
ag162
ag162
ag162
ag162
ag162
ag162
ag162
ag162
ag162
ag162
ag162
ag162
ag162
ag162
ag162
ag162
ag162
ag162
ag162
ag162
ag162
ag162
ag162
ag162
ag162
ag162
ag162
ag162
ag162
ag162
ag162
ag162
ag162
ag162
ag162
ag162
ag162
ag162
ag162
ag162
ag162
ag162
ag162
ag162
ag162
ag162
ag162
ag162
ag162
ag162
ag162
ag162
ag162
ag162
ag162
ag162
ag162
ag162
ag162
ag162
ag162
ag162
ag162
ag162
ag162
ag162
ag162
ag162
ag162
ag162
ag162
ag162
ag162
ag162
ag162
ag162
ag162
ag162
ag162
ag162
ag162
ag162
ag162
ag162
ag162
ag162
ag162
ag162
ag162
ag162
ag162
ag162
ag162
ag162
ag162
ag162
ag162
ag162
ag162
ag162
ag162
ag162
ag162
ag162
ag162
ag162
ag162
ag162
ag162
ag162
ag162
ag162
ag162
ag162
ag162
ag162
ag162
ag162
ag162
ag162
ag162
ag162
ag162
ag162
ag162
ag162
ag162
ag162
ag162
ag162
ag162
ag162
ag162
ag162
ag162
ag162
ag162
ag162
ag162
ag162
ag162
ag162
ag162
ag162
ag162
ag162
ag162
ag162
ag162
ag162
ag162
ag162
ag162
ag162
ag162
ag162
ag162
ag162
ag162
ag162
ag162
ag162
ag162
ag162
ag162
ag162
ag162
ag162
ag162
ag162
ag162
ag162
ag162
ag162
ag162
ag162
ag162
ag162
ag162
ag162
ag162
ag162
ag162
ag162
ag162
ag162
ag162
ag162
ag162
ag162
ag162
ag162
ag162
ag162
ag162
ag162
ag162
ag162
ag162
ag162
ag162
ag162
ag162
ag162
ag162
ag162
ag162
ag162
ag162
ag162
ag162
ag162
ag162
ag162
ag162
ag162
ag162
ag162
ag162
ag162
ag162
ag162
ag162
ag162
ag162
ag162
ag162
ag162
ag162
ag162
ag162
ag162
ag162
ag162
ag162
ag162
ag162
ag162
ag162
ag162
ag162
ag162
ag162
ag162
ag162
ag162
ag162
ag162
ag162
ag162
ag162
ag162
ag162
ag162
ag162
ag162
ag162
ag162
ag162
ag162
ag162
ag162
ag162
ag162
ag162
ag162
ag162
ag162
ag162
ag162
ag162
ag162
ag162
ag162
ag162
ag162
ag162
ag162
ag162
ag162
ag162
ag162
ag162
ag162
ag162
ag162
ag162
ag162
ag162
ag162
ag162
ag162
ag162
ag162
ag162
ag162
ag162
ag162
ag162
ag162
ag162
ag162
ag162
ag162
ag162
ag162
ag162
ag162
ag162
ag162
ag162
ag162
ag162
ag162
ag162
ag162
ag162
ag162
ag162
ag162
ag162
ag162
ag162
ag162
ag162
ag162
ag162
ag162
ag162
ag162
ag162
ag162
ag162
ag162
ag162
ag162
ag162
ag162
ag162
ag162
ag162
ag162
ag162
ag162
ag162
ag162
ag162
ag162
ag162
ag162
ag162
ag162
ag162
ag162
ag162
ag162
ag162
ag162
ag162
ag162
ag162
ag162
ag162
ag162
ag162
ag162
ag162
ag162
ag162
ag162
ag162
ag162
ag162
ag162
ag162
ag162
ag162
ag162
ag162
ag162
ag162
ag162
ag162
ag162
ag162
ag162
ag162
ag162
ag162
ag162
ag162
ag162
ag162
ag162
ag162
ag162
ag162
ag162
ag162
ag162
ag162
ag162
ag162
ag162
ag162
ag162
ag162
ag162
ag162
ag162
ag162
ag162
ag162
ag162
ag162
ag162
ag162
ag162
ag162
ag162
ag162
ag162
ag162
ag162
ag162
ag162
ag162
ag162
ag162
ag162
ag162
ag162
ag162
ag162
ag162
ag162
ag162
ag162
ag162
ag162
ag162
ag162
ag162
ag162
ag162
ag162
ag162
ag162
ag162
ag162
ag162
ag162
ag162
ag162
ag162
ag162
ag162
ag162
ag162
ag162
ag162
ag162
ag162
ag162
ag162
ag162
ag162
ag162
ag162
ag162
ag162
ag162
ag162
ag162
ag162
ag162
ag162
ag162
ag162
ag162
ag162
ag162
ag162
ag162
ag162
ag162
ag162
ag162
ag162
ag162
ag162
ag162
ag162
ag162
ag162
ag162
ag162
ag162
ag162
ag162
ag162
ag162
ag162
ag162
ag162
ag162
ag162
ag162
ag162
ag162
ag162
ag162
ag162
ag162
ag162
ag162
ag162
ag162
ag162
ag162
ag162
ag162
ag162
ag162
ag162
ag162
ag162
ag162
ag162
ag162
ag162
ag162
ag162
ag162
ag162
ag162
ag162
ag162
ag162
ag162
ag162
ag162
ag162
ag162
ag162
ag162
ag162
ag162
ag162
ag162
ag162
ag162
ag162
ag162
ag162
ag162
ag162
ag162
ag162
ag162
ag162
ag162
ag162
ag162
ag162
ag162
ag162
ag162
ag162
ag162
ag162
ag162
ag162
ag162
ag162
ag162
ag162
ag162
ag162
ag162
ag162
ag162
ag162
ag162
ag162
ag162
ag162
ag162
ag162
ag162
ag162
ag162
ag162
ag162
ag162
ag162
ag162
ag162
ag162
ag162
ag162
ag162
ag162
ag162
ag162
ag162
ag162
ag162
ag162
ag162
ag162
ag162
ag162
ag162
ag162
ag162
ag162
ag162
ag162
ag162
ag162
ag162
ag162
ag162
ag162
ag162
ag162
ag162
ag162
ag162
ag162
ag162
ag162
ag162
ag162
ag162
ag162
ag162
ag162
ag162
ag162
ag162
ag162
ag162
ag162
ag162
ag162
ag162
ag162
ag162
ag162
ag162
ag162
ag162
ag162
ag162
ag162
ag162
ag162
ag162
ag162
ag162
ag162
ag162
ag162
ag162
ag162
ag162
ag162
ag162
ag162
ag162
ag162
ag162
ag162
ag162
ag162
ag162
ag162
ag162
ag162
ag162
ag162
ag162
ag162
ag162
ag162
ag162
ag162
ag162
ag162
ag162
ag162
ag162
ag162
ag162
ag162
ag162
ag162
ag162
ag162
ag162
ag162
ag162
ag162
ag162
ag162
ag162
ag162
ag162
ag162
ag162
ag162
ag162
ag162
ag162
ag162
ag162
ag162
ag162
ag162
ag162
ag162
ag162
ag162
ag162
ag162
ag162
ag162
ag162
ag162
ag162
ag162
ag162
ag162
ag162
ag162
ag162
ag162
ag162
ag162
ag162
ag162
ag162
ag162
ag162
ag162
ag162
ag162
ag162
ag162
ag162
ag162
ag162
ag162
ag162
ag162
ag162
ag162
ag162
ag162
ag162
ag162
ag162
ag162
ag162
ag162
ag162
ag162
ag162
ag162
ag162
ag162
ag162
ag162
ag162
ag162
ag162
ag162
ag162
ag162
ag162
ag162
ag162
ag162
ag162
ag162
ag162
ag162
ag162
ag162
ag162
ag162
ag162
ag162
ag162
ag162
ag162
ag162
ag162
ag162
ag162
ag162
ag162
ag162
ag162
ag162
ag162
ag162
ag162
ag162
ag162
ag162
ag162
ag162
ag162
ag162
ag162
ag162
ag162
ag162
ag162
ag162
ag162
ag162
ag162
ag162
ag162
ag162
ag162
ag162
ag162
ag162
ag162
ag162
ag162
ag162
ag162
ag162
ag162
ag162
ag162
ag162
ag162
ag162
ag162
ag162
ag162
ag162
ag162
ag162
ag162
ag162
ag162
ag162
ag162
ag162
ag162
ag162
ag162
ag162
ag162
ag162
ag162
ag162
ag162
ag162
ag162
ag162
ag162
ag162
ag162
ag162
ag162
ag162
ag162
ag162
ag162
ag162
ag162
ag162
ag162
ag162
ag162
ag162
ag162
ag162
ag162
ag162
ag162
ag162
ag162
ag162
ag162
ag162
ag162
ag162
ag162
ag162
ag162
ag162
ag162
ag162
ag162
ag162
ag162
ag162
ag162
ag162
ag162
ag162
ag162
ag162
ag162
ag162
ag162
ag162
ag162
ag162
ag162
ag162
ag162
ag162
ag162
ag162
ag162
ag162
ag162
ag162
ag162
ag162
ag162
ag162
ag162
ag162
ag162
ag162
ag162
ag162
ag162
ag162
ag162
ag162
ag162
ag162
ag162
ag162
ag162
ag162
ag162
ag162
ag162
ag162
ag162
ag162
ag162
ag162
ag162
ag162
ag162
ag162
ag162
ag162
ag162
ag162
ag162
ag162
ag162
ag162
ag162
ag162
ag162
ag162
ag162
ag162
ag162
ag162
ag162
ag162
ag162
ag162
ag162
ag162
ag162
ag162
ag162
ag162
ag162
ag162
ag162
ag162
ag162
ag162
ag162
ag162
ag162
ag162
ag162
ag162
ag162
ag162
ag162
ag162
ag162
ag162
ag162
ag162
ag162
ag162
ag162
ag162
ag162
ag162
ag162
ag162
ag162
ag162
ag162
ag162
ag162
ag162
ag162
ag162
ag162
ag162
ag162
ag162
ag162
ag162
ag162
ag162
ag162
ag162
ag162
ag162
ag162
ag162
ag162
ag162
ag162
ag162
ag162
ag162
ag162
ag162
ag162
ag162
ag162
ag162
ag162
ag162
ag162
ag162
ag162
ag162
ag162
ag162
ag162
ag162
ag162
ag162
ag162
ag162
ag162
ag162
ag162
ag162
ag162
ag162
ag162
ag162
ag162
ag162
ag162
ag162
ag162
ag162
ag162
ag162
ag162
ag162
ag162
ag162
ag162
ag162
ag162
ag162
ag162
ag162
ag162
ag162
ag162
ag162
ag162
ag162
ag162
ag162
ag162
ag162
ag162
ag162
ag162
ag162
ag162
ag162
ag162
ag162
ag162
ag162
ag162
ag162
ag162
ag162
ag162
ag162
ag162
ag162
ag162
ag162
ag162
ag162
ag162
ag162
ag162
ag162
ag162
ag162
ag162
ag162
ag162
ag162
ag162
ag162
ag162
ag162
ag162
ag162
ag162
ag162
ag162
ag162
ag162
ag162
ag162
ag162
ag162
ag162
ag162
ag162
ag162
ag162
ag162
ag162
ag162
ag162
ag162
ag162
ag162
ag162
ag162
ag162
ag162
ag162
ag162
ag162
ag162
ag162
ag162
ag162
ag162
ag162
ag162
ag162
ag162
ag162
ag162
ag162
ag162
ag162
ag162
ag162
ag162
ag162
ag162
ag162
ag162
ag162
ag162
ag162
ag162
ag162
ag162
ag162
ag162
ag162
ag162
ag162
ag162
ag162
ag162
ag162
ag162
ag162
ag162
ag162
ag162
ag162
ag162
ag162
ag162
ag162
ag162
ag162
ag162
ag162
ag162
ag162
ag162
ag162
ag162
ag162
ag162
ag162
ag162
ag162
ag162
ag162
ag162
ag162
ag162
ag162
ag162
ag162
ag162
ag162
ag162
ag162
ag162
ag162
ag162
ag162
ag162
ag162
ag162
ag162
ag162
ag162
ag162
ag162
ag162
ag162
ag162
ag162
ag162
ag162
ag162
ag162
ag162
ag162
ag162
ag162
ag162
ag162
ag162
ag162
ag162
ag162
ag162
ag162
ag162
ag162
ag162
ag162
ag162
ag162
ag162
ag162
ag162
ag162
ag162
ag162
ag162
ag162
ag162
ag162
ag162
ag162
ag162
ag162
ag162
ag162
ag162
ag162
ag162
ag162
ag162
ag162
ag162
ag162
ag162
ag162
ag162
ag162
ag162
ag162
ag162
ag162
ag162
ag162
ag162
ag162
ag162
ag162
ag162
ag162
ag162
ag162
ag162
ag162
ag162
ag162
ag162
ag162
ag162
ag162
ag162
ag162
ag162
ag162
ag162
ag162
ag162
ag162
ag162
ag162
ag162
ag162
ag162
ag162
ag162
ag162
ag162
ag162
ag162
ag162
ag162
ag162
ag162
ag162
ag162
ag162
ag162
ag162
ag162
ag162
ag162
ag162
ag162
ag162
ag162
ag162
ag162
ag162
ag162
ag162
ag162
ag162
ag162
ag162
ag162
ag162
ag162
ag162
ag162
ag162
ag162
ag162
ag162
ag162
ag162
ag162
ag162
ag162
ag162
ag162
ag162
ag162
ag162
ag162
ag162
ag162
ag162
ag162
ag162
ag162
ag162
ag162
ag162
ag162
ag162
ag162
ag162
ag162
ag162
ag162
ag162
ag162
ag162
ag162
ag162
ag162
ag162
ag162
ag162
ag162
ag162
ag162
ag162
ag162
ag162
ag162
ag162
ag162
ag162
ag162
ag162
ag162
ag162
ag162
ag162
ag162
ag162
ag162
ag162
ag162
ag162
ag162
ag162
ag162
ag162
ag162
ag162
ag162
ag162
ag162
ag162
ag162
ag162
ag162
ag162
ag162
ag162
ag162
ag162
ag162
ag162
ag162
ag162
ag162
ag162
ag162
ag162
ag162
ag162
ag162
ag162
ag162
ag162
ag162
ag162
ag162
ag162
ag162
ag162
ag162
ag162
ag162
ag162
ag162
ag162
ag162
ag162
ag162
ag162
ag162
ag162
ag162
ag162
ag162
ag162
ag162
ag162
ag162
ag162
ag162
ag162
ag162
ag162
ag162
ag162
ag162
ag162
ag162
ag162
ag162
ag162
ag162
ag162
ag162
ag162
ag162
ag162
ag162
ag162
ag162
ag162
ag162
ag162
ag162
ag162
ag162
ag162
ag162
ag162
ag162
ag162
ag162
ag162
ag162
ag162
ag162
ag162
ag162
ag162
ag162
ag162
ag162
ag162
ag162
ag162
ag162
ag162
ag162
ag162
ag162
ag162
ag162
ag162
ag162
ag162
ag162
ag162
ag162
ag162
ag162
ag162
ag162
ag162
ag162
ag162
ag162
ag162
ag162
ag162
ag162
ag162
ag162
ag162
ag162
ag162
ag162
ag162
ag162
ag162
ag162
ag162
ag162
ag162
ag162
ag162
ag162
ag162
ag162
ag162
ag162
ag162
ag162
ag162
ag162
ag162
ag162
ag162
ag162
ag162
ag162
ag162
ag162
ag162
ag162
ag162
ag162
ag162
ag162
ag162
ag162
ag162
ag162
ag162
ag162
ag162
ag162
ag162
ag162
ag162
ag162
ag162
ag162
ag162
ag162
ag162
ag162
ag162
ag162
ag162
ag162
ag162
ag162
ag162
ag162
ag162
ag162
ag162
ag162
ag162
ag162
ag162
ag162
ag162
ag162
ag162
ag162
ag162
ag162
ag162
ag162
ag162
ag162
ag162
ag162
ag162
ag162
ag162
ag162
ag162
ag162
ag162
ag162
ag162
ag162
ag162
ag162
ag162
ag162
ag162
ag162
ag162
ag162
ag162
ag162
ag162
ag162
ag162
ag162
ag162
ag162
ag162
ag162
ag162
ag162
ag162
ag162
ag162
ag162
ag162
ag162
ag162
ag162
ag162
ag162
ag162
ag162
ag162
ag162
ag162
ag162
ag162
ag162
ag162
ag162
ag162
ag162
ag162
ag162
ag162
ag162
ag162
ag162
ag162
ag162
ag162
ag162
ag162
ag162
ag162
ag162
ag162
ag162
ag162
ag162
ag162
ag162
ag162
ag162
ag162
ag162
ag162
ag162
ag162
ag162
ag162
ag162
ag162
ag162
ag162
ag162
ag162
ag162
ag162
ag162
ag162
ag162
ag162
ag162
ag162
ag162
ag162
ag162
ag162
ag162
ag162
ag162
ag162
ag162
ag162
ag162
ag162
ag162
ag162
ag162
ag162
ag162
ag162
ag162
ag162
ag162
ag162
ag162
ag162
ag162
ag162
ag162
ag162
ag162
ag162
ag162
ag162
ag162
ag162
ag162
ag162
ag162
ag162
ag162
ag162
ag162
ag162
ag162
ag162
ag162
ag162
ag162
ag162
ag162
ag162
ag162
ag162
ag162
ag162
ag162
ag162
ag162
ag162
ag162
ag162
ag162
ag162
ag162
ag162
ag162
ag162
ag162
ag162
ag162
ag162
ag162
ag162
ag162
ag162
ag162
ag162
ag162
ag162
ag162
ag162
ag162
ag162
ag162
ag162
ag162
ag162
ag162
ag162
ag162
ag162
ag162
ag162
ag162
ag162
ag162
ag162
ag162
ag162
ag162
ag162
ag162
ag162
ag162
ag162
ag162
ag162
ag162
ag162
ag162
ag162
ag162
ag162
ag162
ag162
ag162
ag162
ag162
ag162
ag162
ag162
ag162
ag162
ag162
ag162
ag162
ag162
ag162
ag162
ag162
ag162
ag162
ag162
ag162
ag162
ag162
ag162
ag162
ag162
ag162
ag162
ag162
ag162
ag162
ag162
ag162
ag162
ag162
ag162
ag162
ag162
ag162
ag162
ag162
ag162
ag162
ag162
ag162
ag162
ag162
ag162
ag162
ag162
ag162
ag162
ag162
ag162
ag162
ag162
ag162
ag162
ag162
ag162
ag162
ag162
ag162
ag162
ag162
ag162
ag162
ag162
ag162
ag162
ag162
ag162
ag162
ag162
ag162
ag162
ag162
ag162
ag162
ag162
ag162
ag162
ag162
ag162
ag162
ag162
ag162
ag162
ag162
ag162
ag162
ag162
ag162
ag162
ag162
ag162
ag162
ag162
ag162
ag162
ag162
ag162
ag162
ag162
ag162
ag162
ag162
ag162
ag162
ag162
ag162
ag162
ag162
ag162
ag162
ag162
ag162
ag162
ag162
ag162
ag162
ag162
ag162
ag162
ag162
ag162
ag162
ag162
ag162
ag162
ag162
ag162
ag162
ag162
ag162
ag162
ag162
ag162
ag162
ag162
ag162
ag162
ag162
ag162
ag162
ag162
ag162
ag162
ag162
ag162
ag162
ag162
ag162
ag162
ag162
ag162
ag162
ag162
ag162
ag162
ag162
ag162
ag162
ag162
ag162
ag162
ag162
ag162
ag162
ag162
ag162
ag162
ag162
ag162
ag162
ag162
ag162
ag162
ag162
ag162
ag162
ag162
ag162
ag162
ag162
ag162
ag162
ag162
ag162
ag162
ag162
ag162
ag162
ag162
ag162
ag162
ag162
ag162
ag162
ag162
ag162
ag162
ag162
ag162
ag162
ag162
ag162
ag162
ag162
ag162
ag162
ag162
ag162
ag162
ag162
ag162
ag162
ag162
ag162
ag162
ag162
ag162
ag162
ag162
ag162
ag162
ag162
ag162
ag162
ag162
ag162
ag162
ag162
ag162
ag162
ag162
ag162
ag162
ag162
ag162
ag162
ag162
ag162
ag162
ag162
ag162
ag162
ag162
ag162
ag162
ag162
ag162
ag162
ag162
ag162
ag162
ag162
ag162
ag162
ag162
ag162
ag162
ag162
ag162
ag162
ag162
ag162
ag162
ag162
ag162
ag162
ag162
ag162
ag162
ag162
ag162
ag162
ag162
ag162
ag162
ag162
ag162
ag162
ag162
ag162
ag162
ag162
ag162
ag162
ag162
ag162
ag162
ag162
ag162
ag162
ag162
ag162
ag162
ag162
ag162
ag162
ag162
ag162
ag162
ag162
ag162
ag162
ag162
ag162
ag162
ag162
ag162
ag162
ag162
ag162
ag162
ag162
ag162
ag162
ag162
ag162
ag162
ag162
ag162
ag162
ag162
ag162
ag162
ag162
ag162
ag162
ag162
ag162
ag162
ag162
ag162
ag162
ag162
ag162
ag162
ag162
ag162
ag162
ag162
ag162
ag162
ag162
ag162
ag162
ag162
ag162
ag162
ag162
ag162
ag162
ag162
ag162
ag162
ag162
ag162
ag162
ag162
ag162
ag162
ag162
ag162
ag162
ag162
ag162
ag162
ag162
ag162
ag162
ag162
ag162
ag162
ag162
ag162
ag162
ag162
ag162
ag162
ag162
ag162
ag162
ag162
ag162
ag162
ag162
ag162
ag162
ag162
ag162
ag162
ag162
ag162
ag162
ag162
ag162
ag162
ag162
ag162
ag162
ag162
ag162
ag162
ag162
ag162
ag162
ag162
ag162
ag162
ag162
ag162
ag162
ag162
ag162
ag162
ag162
ag162
ag162
ag162
ag162
ag162
ag162
ag162
ag162
ag162
ag162
ag162
ag162
ag162
ag162
ag162
ag162
ag162
ag162
ag162
ag162
ag162
ag162
ag162
ag162
ag162
ag162
ag162
ag162
ag162
ag162
ag162
ag162
ag162
ag162
ag162
ag162
ag162
ag162
ag162
ag162
ag162
ag162
ag162
ag162
ag162
ag162
ag162
ag162
ag162
ag162
ag162
ag162
ag162
ag162
ag162
ag162
ag162
ag162
ag162
ag162
ag162
ag162
ag162
ag162
ag162
ag162
ag162
ag162
ag162
ag162
ag162
ag162
ag162
ag162
ag162
ag162
ag162
ag162
ag162
ag162
ag162
ag162
ag162
ag162
ag162
ag162
ag162
ag162
ag162
ag162
ag162
ag162
ag162
ag162
ag162
ag162
ag162
ag162
ag162
ag162
ag162
ag162
ag162
ag162
ag162
ag162
ag162
ag162
ag162
ag162
ag162
ag162
ag162
ag162
ag162
ag162
ag162
ag162
ag162
ag162
ag162
ag162
ag162
ag162
ag162
ag162
ag162
ag162
ag162
ag162
ag162
ag162
ag162
ag162
ag162
ag162
ag162
ag162
ag162
ag162
ag162
ag162
ag162
ag162
ag162
ag162
ag162
ag162
ag162
ag162
ag162
ag162
ag162
ag162
ag162
ag162
ag162
ag162
ag162
ag162
ag162
ag162
ag162
ag162
ag162
ag162
ag162
ag162
ag162
ag162
ag162
ag162
ag162
ag162
ag162
ag162
ag162
ag162
ag162
ag162
ag162
ag162
ag162
ag162
ag162
ag162
ag162
ag162
ag162
ag162
ag162
ag162
ag162
ag162
ag162
ag162
ag162
ag162
ag162
ag162
ag162
ag162
ag162
ag162
ag162
ag162
ag162
ag162
ag162
ag162
ag162
ag162
ag162
ag162
ag162
ag162
ag162
ag162
ag162
ag162
ag162
ag162
ag162
ag162
ag162
ag162
ag162
ag162
ag162
ag162
ag162
ag162
ag162
ag162
ag162
ag162
ag162
ag162
ag162
ag162
ag162
ag162
ag162
ag162
ag162
ag162
ag162
ag162
ag162
ag162
ag162
ag162
ag162
ag162
ag162
ag162
ag162
ag162
ag162
ag162
ag162
ag162
ag162
ag162
ag162
ag162
ag162
ag162
ag162
ag162
ag162
ag162
ag162
ag162
ag162
ag162
ag162
ag162
ag162
ag162
ag162
ag162
ag162
ag162
ag162
ag162
ag162
ag162
ag162
ag162
ag162
ag162
ag162
ag162
ag162
ag162
ag162
ag162
ag162
ag162
ag162
ag162
ag162
ag162
ag162
ag162
ag162
ag162
ag162
ag162
ag162
ag162
ag162
ag162
ag162
ag162
ag162
ag162
ag162
ag162
ag162
ag162
ag162
ag162
ag162
ag162
ag162
ag162
ag162
ag162
ag162
ag162
ag162
ag162
ag162
ag162
ag162
ag162
ag162
ag162
ag162
ag162
ag162
ag162
ag162
ag162
ag162
ag162
ag162
ag162
ag162
ag162
ag162
ag162
ag162
ag162
ag162
ag162
ag162
ag162
ag162
ag162
ag162
ag162
ag162
ag162
ag162
ag162
ag162
ag162
ag162
ag162
ag162
ag162
ag162
ag162
ag162
ag162
ag162
ag162
ag162
ag162
ag162
ag162
ag162
ag162
ag162
ag162
ag162
ag162
ag162
ag162
ag162
ag162
ag162
ag162
ag162
ag162
ag162
ag162
ag162
ag162
ag162
ag162
ag162
ag162
ag162
ag162
ag162
ag162
ag162
ag162
ag162
ag162
ag162
ag162
ag162
ag162
ag162
ag162
ag162
ag162
ag162
ag162
ag162
ag162
ag162
ag162
ag162
ag162
ag162
ag162
ag162
ag162
ag162
ag162
ag162
ag162
ag162
ag162
ag162
ag162
ag162
ag162
ag162
ag162
ag162
ag162
ag162
ag162
ag162
ag162
ag162
ag162
ag162
ag162
ag162
ag162
ag162
ag162
ag162
ag162
ag162
ag162
ag162
ag162
ag162
ag162
ag162
ag162
ag162
ag162
ag162
ag162
ag162
ag162
ag162
ag162
ag162
ag162
ag162
ag162
ag162
ag162
ag162
ag162
ag162
ag162
ag162
ag162
ag162
ag162
ag162
ag162
ag162
ag162
ag162
ag162
ag162
ag162
ag162
ag162
ag162
ag162
ag162
ag162
ag162
ag162
ag162
ag162
ag162
ag162
ag162
ag162
ag162
ag162
ag162
ag162
ag162
ag162
ag162
ag162
ag162
ag162
ag162
ag162
ag162
ag162
ag162
ag162
ag162
ag162
ag162
ag162
ag162
ag162
ag162
ag162
ag162
ag162
ag162
ag162
ag162
ag162
ag162
ag162
ag162
ag162
ag162
ag162
ag162
ag162
ag162
ag162
ag162
ag162
ag162
ag162
ag162
ag162
ag162
ag162
ag162
ag162
ag162
ag162
ag162
ag162
ag162
ag162
ag162
ag162
ag162
ag162
ag162
ag162
ag162
ag162
ag162
ag162
ag162
ag162
ag162
ag162
ag162
ag162
ag162
ag162
ag162
ag162
ag162
ag162
ag162
ag162
ag162
ag162
ag162
ag162
ag162
ag162
ag162
ag162
ag162
ag162
ag162
ag162
ag162
ag162
ag162
ag162
ag162
ag162
ag162
ag162
ag162
ag162
ag162
ag162
ag162
ag162
ag162
ag162
ag162
ag162
ag162
ag162
ag162
ag162
ag162
ag162
ag162
ag162
ag162
ag162
ag162
ag162
ag162
ag162
ag162
ag162
ag162
ag162
ag162
ag162
ag162
ag162
ag162
ag162
ag162
ag162
ag162
ag162
ag162
ag162
ag162
ag162
ag162
ag162
ag162
ag162
ag162
ag162
ag162
ag162
ag162
ag162
ag162
ag162
ag162
ag162
ag162
ag162
ag162
ag162
ag162
ag162
ag162
ag162
ag162
ag162
ag162
ag162
ag162
ag162
ag162
ag162
ag162
ag162
ag162
ag162
ag162
ag162
ag162
ag162
ag162
ag162
ag162
ag162
ag162
ag162
ag162
ag162
ag162
ag162
ag162
ag162
ag162
ag162
ag162
ag162
ag162
ag162
ag162
ag162
ag162
ag162
ag162
ag162
ag162
ag162
ag162
ag162
ag162
ag162
ag162
ag162
ag162
ag162
ag162
ag162
ag162
ag162
ag162
ag162
ag162
ag162
ag162
ag162
ag162
ag162
ag162
ag162
ag162
ag162
ag162
ag162
ag162
ag162
ag162
ag162
ag162
ag162
ag162
ag162
ag162
ag162
ag162
ag162
ag162
ag162
ag162
ag162
ag162
ag162
ag162
ag162
ag162
ag162
ag162
ag162
ag162
ag162
ag162
ag162
ag162
ag162
ag162
ag162
ag162
ag162
ag162
ag162
ag162
ag162
ag162
ag162
ag162
ag162
ag162
ag162
ag162
ag162
ag162
ag162
ag162
ag162
ag162
ag162
ag162
ag162
ag162
ag162
ag162
ag162
ag162
ag162
ag162
ag162
ag162
ag162
ag162
ag162
ag162
ag162
ag162
ag162
ag162
ag162
ag162
ag162
ag162
ag162
ag162
ag162
ag162
ag162
ag162
ag162
ag162
ag162
ag162
ag162
ag162
ag162
ag162
ag162
ag162
ag162
ag162
ag162
ag162
ag162
ag162
ag162
ag162
ag162
ag162
ag162
ag162
ag162
ag162
ag162
ag162
ag162
ag162
ag162
ag162
ag162
ag162
ag162
ag162
ag162
ag162
ag162
ag162
ag162
ag162
ag162
ag162
ag162
ag162
ag162
ag162
ag162
ag162
ag162
ag162
ag162
ag162
ag162
ag162
ag162
ag162
ag162
ag162
ag162
ag162
ag162
ag162
ag162
ag162
ag162
ag162
ag162
ag162
ag162
ag162
ag162
ag162
ag162
ag162
ag162
ag162
ag162
ag162
ag162
ag162
ag162
ag162
ag162
ag162
ag162
ag162
ag162
ag162
ag162
ag162
ag162
ag162
ag162
ag162
ag162
ag162
ag162
ag162
ag162
ag162
ag162
ag162
ag162
ag162
ag162
ag162
ag162
ag162
ag162
ag162
ag162
ag162
ag162
ag162
ag162
ag162
ag162
ag162
ag162
ag162
ag162
ag162
ag162
ag162
ag162
ag162
ag162
ag162
ag162
ag162
ag162
ag162
ag162
ag162
ag162
ag162
ag162
ag162
ag162
ag162
ag162
ag162
ag162
ag162
ag162
ag162
ag162
ag162
ag162
ag162
ag162
ag162
ag162
ag162
ag162
ag162
ag162
ag162
ag162
ag162
ag162
ag162
ag162
ag162
ag162
ag162
ag162
ag162
ag162
ag162
ag162
ag162
ag162
ag162
ag162
ag162
ag162
ag162
ag162
ag162
ag162
ag162
ag162
ag162
ag162
ag162
ag162
ag162
ag162
ag162
ag162
ag162
ag162
ag162
ag162
ag162
ag162
ag162
ag162
ag162
ag162
ag162
ag162
ag162
ag162
ag162
ag162
ag162
ag162
ag162
ag162
ag162
ag162
ag162
ag162
ag162
ag162
ag162
ag162
ag162
ag162
ag162
ag162
ag162
ag162
ag162
ag162
ag162
ag162
ag162
ag162
ag162
ag162
ag162
ag162
ag162
ag162
ag162
ag162
ag162
ag162
ag162
ag162
ag162
ag162
ag162
ag162
ag162
ag162
ag162
ag162
ag162
ag162
ag162
ag162
ag162
ag162
ag162
ag162
ag162
ag162
ag162
ag162
ag162
ag162
ag162
ag162
ag162
ag162
ag162
ag162
ag162
ag162
ag162
ag162
ag162
ag162
ag162
ag162
ag162
ag162
ag162
ag162
ag162
ag162
ag162
ag162
ag162
ag162
ag162
ag162
ag162
ag162
ag162
ag162
ag162
ag162
ag162
ag162
ag162
ag162
ag162
ag162
ag162
ag162
ag162
ag162
ag162
ag162
ag162
ag162
ag162
ag162
ag162
ag162
ag162
ag162
ag162
ag162
ag162
ag162
ag162
ag162
ag162
ag162
ag162
ag162
ag162
ag162
ag162
ag162
ag162
ag162
ag162
ag162
ag162
ag162
ag162
ag162
ag162
ag162
ag162
ag162
ag162
ag162
ag162
ag162
ag162
ag162
ag162
ag162
ag162
ag162
ag162
ag162
ag162
ag162
ag162
ag162
ag162
ag162
ag162
ag162
ag162
ag162
ag162
ag162
ag162
ag162
ag162
ag162
ag162
ag162
ag162
ag162
ag162
ag162
ag162
ag162
ag162
ag162
ag162
ag162
ag162
ag162
ag162
ag162
ag162
ag162
ag162
ag162
ag162
ag162
ag162
ag162
ag162
ag162
ag162
ag162
ag162
ag162
ag162
ag162
ag162
ag162
ag162
ag162
ag162
ag162
ag162
ag162
ag162
ag162
ag162
ag162
ag162
ag162
ag162
ag162
ag162
ag162
ag162
ag162
ag162
ag162
ag162
ag162
ag162
ag162
ag162
ag162
ag162
ag162
ag162
ag162
ag162
ag162
ag162
ag162
ag162
ag162
ag162
ag162
ag162
ag162
ag162
ag162
ag162
ag162
ag162
ag162
ag162
ag162
ag162
ag162
ag162
ag162
ag162
ag162
ag162
ag162
ag162
ag162
ag162
ag162
ag162
ag162
ag162
ag162
ag162
ag162
ag162
ag162
ag162
ag162
ag162
ag162
ag162
ag162
ag162
ag162
ag162
ag162
ag162
ag162
ag162
ag162
ag162
ag162
ag162
ag162
ag162
ag162
ag162
ag162
ag162
ag162
ag162
ag162
ag162
ag162
ag162
ag162
ag162
ag162
ag162
ag162
ag162
ag162
ag162
ag162
ag162
ag162
ag162
ag162
ag162
ag162
ag162
ag162
ag162
ag162
ag162
ag162
ag162
ag162
ag162
ag162
ag162
ag162
ag162
ag162
ag162
ag162
ag162
ag162
ag162
ag162
ag162
ag162
ag162
ag162
ag162
ag162
ag162
ag162
ag162
ag162
ag162
ag162
ag162
ag162
ag162
ag162
ag162
ag162
ag162
ag162
ag162
ag162
ag162
ag162
ag162
ag162
ag162
ag162
ag162
ag162
ag162
ag162
ag162
ag162
ag162
ag162
ag162
ag162
ag162
ag162
ag162
ag162
ag162
ag162
ag162
ag162
ag162
ag162
ag162
ag162
ag162
ag162
ag162
ag162
ag162
ag162
ag162
ag162
ag162
ag162
ag162
ag162
ag162
ag162
ag162
ag162
ag162
ag162
ag162
ag162
ag162
ag162
ag162
ag162
ag162
ag162
ag162
ag162
ag162
ag162
ag162
ag162
ag162
ag162
ag162
ag162
ag162
ag162
ag162
ag162
ag162
ag162
ag162
ag162
ag162
ag162
ag162
ag162
ag162
ag162
ag162
ag162
ag162
ag162
ag162
ag162
ag162
ag162
ag162
ag162
ag162
ag162
ag162
ag162
ag162
ag162
ag162
ag162
ag162
ag162
ag162
ag162
ag162
ag162
ag162
ag162
ag162
ag162
ag162
ag162
ag162
ag162
ag162
ag162
ag162
ag162
ag162
ag162
ag162
ag162
ag162
ag162
ag162
ag162
ag162
ag162
ag162
ag162
ag162
ag162
ag162
ag162
ag162
ag162
ag162
ag162
ag162
ag162
ag162
ag162
ag162
ag162
ag162
ag162
ag162
ag162
ag162
ag162
ag162
ag162
ag162
ag162
ag162
ag162
ag162
ag162
ag162
ag162
ag162
ag162
ag162
ag162
ag162
ag162
ag162
ag162
ag162
ag162
ag162
ag162
ag162
ag162
ag162
ag162
ag162
ag162
ag162
ag162
ag162
ag162
ag162
ag162
ag162
ag162
ag162
ag162
ag162
ag162
ag162
ag162
ag162
ag162
ag162
ag162
ag162
ag162
ag162
ag162
ag162
ag162
ag162
ag162
ag162
ag162
ag162
ag162
ag162
ag162
ag162
ag162
ag162
ag162
ag162
ag162
ag162
ag162
ag162
ag162
ag162
ag162
ag162
ag162
ag162
ag162
ag162
ag162
ag162
ag162
ag162
ag162
ag162
ag162
ag162
ag162
ag162
ag162
ag162
ag162
ag162
ag162
ag162
ag162
ag162
ag162
ag162
ag162
ag162
ag162
ag162
ag162
ag162
ag162
ag162
ag162
ag162
ag162
ag162
ag162
ag162
ag162
ag162
ag162
ag162
ag162
ag162
ag162
ag162
ag162
ag162
ag162
ag162
ag162
ag162
ag162
ag162
ag162
ag162
ag162
ag162
ag162
ag162
ag162
ag162
ag162
ag162
ag162
ag162
ag162
ag162
ag162
ag162
ag162
ag162
ag162
ag162
ag162
ag162
ag162
ag162
ag162
ag162
ag162
ag162
ag162
ag162
ag162
ag162
ag162
ag162
ag162
ag162
ag162
ag162
ag162
ag162
ag162
ag162
ag162
ag162
ag162
ag162
ag162
ag162
ag162
ag162
ag162
ag162
ag162
ag162
ag162
ag162
ag162
ag162
ag162
ag162
ag162
ag162
ag162
ag162
ag162
ag162
ag162
ag162
ag162
ag162
ag162
ag162
ag162
ag162
ag162
ag162
ag162
ag162
ag162
ag162
ag162
ag162
ag162
ag162
ag162
ag162
ag162
ag162
ag162
ag162
ag162
ag162
ag162
ag162
ag162
ag162
ag162
ag162
ag162
ag162
ag162
ag162
ag162
ag162
ag162
ag162
ag162
ag162
ag162
ag162
ag162
ag162
ag162
ag162
ag162
ag162
ag162
ag162
ag162
ag162
ag162
ag162
ag162
ag162
ag162
ag162
ag162
ag162
ag162
ag162
ag162
ag162
ag162
ag162
ag162
ag162
ag162
ag162
ag162
ag162
ag162
ag162
ag162
ag162
ag162
ag162
ag162
ag162
ag162
ag162
ag162
ag162
ag162
ag162
ag162
ag162
ag162
ag162
ag162
ag162
ag162
ag162
ag162
ag162
ag162
ag162
ag162
ag162
ag162
ag162
ag162
ag162
ag162
ag162
ag162
ag162
ag162
ag162
ag162
ag162
ag162
ag162
ag162
ag162
ag162
ag162
ag162
ag162
ag162
ag162
ag162
ag162
ag162
ag162
ag162
ag162
ag162
ag162
ag162
ag162
ag162
ag162
ag162
ag162
ag162
ag162
ag162
ag162
ag162
ag162
ag162
ag162
ag162
ag162
ag162
ag162
ag162
ag162
ag162
ag162
ag162
ag162
ag162
ag162
ag162
ag162
ag162
ag162
ag162
ag162
ag162
ag162
ag162
ag162
ag162
ag162
ag162
ag162
ag162
ag162
ag162
ag162
ag162
ag162
ag162
ag162
ag162
ag162
ag162
ag162
ag162
ag162
ag162
ag162
ag162
ag162
ag162
ag162
ag162
ag162
ag162
ag162
ag162
ag162
ag162
ag162
ag162
ag162
ag162
ag162
ag162
ag162
ag162
ag162
ag162
ag162
ag162
ag162
ag162
ag162
ag162
ag162
ag162
ag162
ag162
ag162
ag162
ag162
ag162
ag162
ag162
ag162
ag162
ag162
ag162
ag162
ag162
ag162
ag162
ag162
ag162
ag162
ag162
ag162
ag162
ag162
ag162
ag162
ag162
ag162
ag162
ag162
ag162
ag162
ag162
ag162
ag162
ag162
ag162
ag162
ag162
ag162
ag162
ag162
ag162
ag162
ag162
ag162
ag162
ag162
ag162
ag162
ag162
ag162
ag162
ag162
ag162
ag162
ag162
ag162
ag162
ag162
ag162
ag162
ag162
ag162
ag162
ag162
ag162
ag162
ag162
ag162
ag162
ag162
ag162
ag162
ag162
ag162
ag162
ag162
ag162
ag162
ag162
ag162
ag162
ag162
ag162
ag162
ag162
ag162
ag162
ag162
ag162
ag162
ag162
ag162
ag162
ag162
ag162
ag162
ag162
ag162
ag162
ag162
ag162
ag162
ag162
ag162
ag162
ag162
ag162
ag162
ag162
ag162
ag162
ag162
ag162
ag162
ag162
ag162
ag162
ag162
ag162
ag162
ag162
ag162
ag162
ag162
ag162
ag162
ag162
ag162
ag162
ag162
ag162
ag162
ag162
ag162
ag162
ag162
ag162
ag162
ag162
ag162
ag162
ag162
ag162
ag162
ag162
ag162
ag162
ag162
ag162
ag162
ag162
ag162
ag162
ag162
ag162
ag162
ag162
ag162
ag162
ag162
ag162
ag162
ag162
ag162
ag162
ag162
ag162
ag162
ag162
ag162
ag162
ag162
ag162
ag162
ag162
ag162
ag162
ag162
ag162
ag162
ag162
ag162
ag162
ag162
ag162
ag162
ag162
ag162
ag162
ag162
ag162
ag162
ag162
ag162
ag162
ag162
ag162
ag162
ag162
ag162
ag162
ag162
ag162
ag162
ag162
ag162
ag162
ag162
ag162
ag162
ag162
ag162
ag162
ag162
ag162
ag162
ag162
ag162
ag162
ag162
ag162
ag162
ag162
ag162
ag162
ag162
ag162
ag162
ag162
ag162
ag162
ag162
ag162
ag162
ag162
ag162
ag162
ag162
ag162
ag162
ag162
ag162
ag162
ag162
ag162
ag162
ag162
ag162
ag162
ag162
ag162
ag162
ag162
ag162
ag162
ag162
ag162
ag162
ag162
ag162
ag162
ag162
ag162
ag162
ag162
ag162
ag162
ag162
ag162
ag162
ag162
ag162
ag162
ag162
ag162
ag162
ag162
ag162
ag162
ag162
ag162
ag162
ag162
ag162
ag162
ag162
ag162
ag162
ag162
ag162
ag162
ag162
ag162
ag162
ag162
ag162
ag162
ag162
ag162
ag162
ag162
ag162
ag162
ag162
ag162
ag162
ag162
ag162
ag162
ag162
ag162
ag162
ag162
ag162
ag162
ag162
ag162
ag162
ag162
ag162
ag162
ag162
ag162
ag162
ag162
ag162
ag162
ag162
ag162
ag162
ag162
ag162
ag162
ag162
ag162
ag162
ag162
ag162
ag162
ag162
ag162
ag162
ag162
ag162
ag162
ag162
ag162
ag162
ag162
ag162
ag162
ag162
ag162
ag162
ag162
ag162
ag162
ag162
ag162
ag162
ag162
ag162
ag162
ag162
ag162
ag162
ag162
ag162
ag162
ag162
ag162
ag162
ag162
ag162
ag162
ag162
ag162
ag162
ag162
ag162
ag162
ag162
ag162
ag162
ag162
ag162
ag162
ag162
ag162
ag162
ag162
ag162
ag162
ag162
ag162
ag162
ag162
ag162
ag162
ag162
ag162
ag162
ag162
ag162
ag162
ag162
ag162
ag162
ag162
ag162
ag162
ag162
ag162
ag162
ag162
ag162
ag162
ag162
ag162
ag162
ag162
ag162
ag162
ag162
ag162
ag162
ag162
ag162
ag162
ag162
ag162
ag162
ag162
ag162
ag162
ag162
ag162
ag162
ag162
ag162
ag162
ag162
ag162
ag162
ag162
ag162
ag162
ag162
ag162
ag162
ag162
ag162
ag162
ag162
ag162
ag162
ag162
ag162
ag162
ag162
ag162
ag162
ag162
ag162
ag162
ag162
ag162
ag162
ag162
ag162
ag162
ag162
ag162
ag162
ag162
ag162
ag162
ag162
ag162
ag162
ag162
ag162
ag162
ag162
ag162
ag162
ag162
ag162
ag162
ag162
ag162
ag162
ag162
ag162
ag162
ag162
ag162
ag162
ag162
ag162
ag162
ag162
ag162
ag162
ag162
ag162
ag162
ag162
ag162
ag162
ag162
ag162
ag162
ag162
ag162
ag162
ag162
ag162
ag162
ag162
ag162
ag162
ag162
ag162
ag162
ag162
ag162
ag162
ag162
ag162
ag162
ag162
ag162
ag162
ag162
ag162
ag162
ag162
ag162
ag162
ag162
ag162
ag162
ag162
ag162
ag162
ag162
ag162
ag162
ag162
ag162
ag162
ag162
ag162
ag162
ag162
ag162
ag162
ag162
ag162
ag162
ag162
ag162
ag162
ag162
ag162
ag162
ag162
ag162
ag162
ag162
ag162
ag162
ag162
ag162
ag162
ag162
ag162
ag162
ag162
ag162
ag162
ag162
ag162
ag162
ag162
ag162
ag162
ag162
ag162
ag162
ag162
ag162
ag162
ag162
ag162
ag162
ag162
ag162
ag162
ag162
ag162
ag162
ag162
ag162
ag162
ag162
ag162
ag162
ag162
ag162
ag162
ag162
ag162
ag162
ag162
ag162
ag162
ag162
ag162
ag162
ag162
ag162
ag162
ag162
ag162
ag162
ag162
ag162
ag162
ag162
ag162
ag162
ag162
ag162
ag162
ag162
ag162
ag162
ag162
ag162
ag162
ag162
ag162
ag162
ag162
ag162
ag162
ag162
ag162
ag162
ag162
ag162
ag162
ag162
ag162
ag162
ag162
ag162
ag162
ag162
ag162
ag162
ag162
ag162
ag162
ag162
ag162
ag162
ag162
ag162
ag162
ag162
ag162
ag162
ag162
ag162
ag162
ag162
ag162
ag162
ag162
ag162
ag162
ag162
ag162
ag162
ag162
ag162
ag162
ag162
ag162
ag162
ag162
ag162
ag162
ag162
ag162
ag162
ag162
ag162
ag162
ag162
ag162
ag162
ag162
ag162
ag162
ag162
ag162
ag162
ag162
ag162
ag162
ag162
ag162
ag162
ag162
ag162
ag162
ag162
ag162
ag162
ag162
ag162
ag162
ag162
ag162
ag162
ag162
ag162
ag162
ag162
ag162
ag162
ag162
ag162
ag162
ag162
ag162
ag162
ag162
ag162
ag162
ag162
ag162
ag162
ag162
ag162
ag162
ag162
ag162
ag162
ag162
ag162
ag162
ag162
ag162
ag162
ag162
ag162
ag162
ag162
ag162
ag162
ag162
ag162
ag162
ag162
ag162
ag162
ag162
ag162
ag162
ag162
ag162
ag162
ag162
ag162
ag162
ag162
ag162
ag162
ag162
ag162
ag162
ag162
ag162
ag162
ag162
ag162
ag162
ag162
ag162
ag162
ag162
ag162
ag162
ag162
ag162
ag162
ag162
ag162
ag162
ag162
ag162
ag162
ag162
ag162
ag162
ag162
ag162
ag162
ag162
ag162
ag162
ag162
ag162
ag162
ag162
ag162
ag162
ag162
ag162
ag162
ag162
ag162
ag162
ag162
ag162
ag162
ag162
ag162
ag162
ag162
ag162
ag162
ag162
ag162
ag162
ag162
ag162
ag162
ag162
ag162
ag162
ag162
ag162
ag162
ag162
ag162
ag162
ag162
ag162
ag162
ag162
ag162
ag162
ag162
ag162
ag162
ag162
ag162
ag162
ag162
ag162
ag162
ag162
ag162
ag162
ag162
ag162
ag162
ag162
ag162
ag162
ag162
ag162
ag162
ag162
ag162
ag162
ag162
ag162
ag162
ag162
ag162
ag162
ag162
ag162
ag162
ag162
ag162
ag162
ag162
ag162
ag162
ag162
ag162
ag162
ag162
ag162
ag162
ag162
ag162
ag162
ag162
ag162
ag162
ag7
(g11
S'\x00\x008\xd0\xbd\xac"@'
p163
tp164
Rp165
ag165
ag165
ag165
ag165
ag165
ag165
ag165
ag165
ag165
ag165
ag165
ag165
ag165
ag165
ag165
ag165
ag165
ag165
ag165
ag165
ag165
ag165
ag165
ag165
ag165
ag165
ag16
ag16
ag16
ag16
ag16
ag16
ag16
ag16
ag16
ag16
ag16
ag16
ag16
ag16
ag16
ag16
ag16
ag16
ag16
ag16
ag16
ag16
ag16
ag16
ag16
ag16
ag16
ag16
asS'popSize'
p166
I5
sb.